Archive member included to satisfy reference by file (symbol)

d:/local disk e_1212020131/projects/toolchain_route/compiler/7 2017-q4-major/bin/../lib/gcc/arm-none-eabi/7.2.1/../../../../arm-none-eabi/lib/thumb/v7e-m/fpv5/hard\libc.a(lib_a-exit.o)
                              d:/local disk e_1212020131/projects/toolchain_route/compiler/7 2017-q4-major/bin/../lib/gcc/arm-none-eabi/7.2.1/../../../../arm-none-eabi/lib/thumb/v7e-m/fpv5/hard/crt0.o (exit)
d:/local disk e_1212020131/projects/toolchain_route/compiler/7 2017-q4-major/bin/../lib/gcc/arm-none-eabi/7.2.1/../../../../arm-none-eabi/lib/thumb/v7e-m/fpv5/hard\libc.a(lib_a-impure.o)
                              d:/local disk e_1212020131/projects/toolchain_route/compiler/7 2017-q4-major/bin/../lib/gcc/arm-none-eabi/7.2.1/../../../../arm-none-eabi/lib/thumb/v7e-m/fpv5/hard\libc.a(lib_a-exit.o) (_global_impure_ptr)
d:/local disk e_1212020131/projects/toolchain_route/compiler/7 2017-q4-major/bin/../lib/gcc/arm-none-eabi/7.2.1/../../../../arm-none-eabi/lib/thumb/v7e-m/fpv5/hard\libc.a(lib_a-init.o)
                              d:/local disk e_1212020131/projects/toolchain_route/compiler/7 2017-q4-major/bin/../lib/gcc/arm-none-eabi/7.2.1/../../../../arm-none-eabi/lib/thumb/v7e-m/fpv5/hard/crt0.o (__libc_init_array)
d:/local disk e_1212020131/projects/toolchain_route/compiler/7 2017-q4-major/bin/../lib/gcc/arm-none-eabi/7.2.1/../../../../arm-none-eabi/lib/thumb/v7e-m/fpv5/hard\libc.a(lib_a-memcpy.o)
                              ./obj/hardware.o (memcpy)
d:/local disk e_1212020131/projects/toolchain_route/compiler/7 2017-q4-major/bin/../lib/gcc/arm-none-eabi/7.2.1/../../../../arm-none-eabi/lib/thumb/v7e-m/fpv5/hard\libc.a(lib_a-memset.o)
                              d:/local disk e_1212020131/projects/toolchain_route/compiler/7 2017-q4-major/bin/../lib/gcc/arm-none-eabi/7.2.1/../../../../arm-none-eabi/lib/thumb/v7e-m/fpv5/hard/crt0.o (memset)
d:/local disk e_1212020131/projects/toolchain_route/compiler/7 2017-q4-major/bin/../lib/gcc/arm-none-eabi/7.2.1/../../../../arm-none-eabi/lib/thumb/v7e-m/fpv5/hard\libc.a(lib_a-strncpy.o)
                              ./obj/hardware.o (strncpy)
d:/local disk e_1212020131/projects/toolchain_route/compiler/7 2017-q4-major/bin/../lib/gcc/arm-none-eabi/7.2.1/../../../../arm-none-eabi/lib/thumb/v7e-m/fpv5/hard\libc.a(lib_a-__call_atexit.o)
                              d:/local disk e_1212020131/projects/toolchain_route/compiler/7 2017-q4-major/bin/../lib/gcc/arm-none-eabi/7.2.1/../../../../arm-none-eabi/lib/thumb/v7e-m/fpv5/hard\libc.a(lib_a-exit.o) (__call_exitprocs)
d:/local disk e_1212020131/projects/toolchain_route/compiler/7 2017-q4-major/bin/../lib/gcc/arm-none-eabi/7.2.1/../../../../arm-none-eabi/lib/thumb/v7e-m/fpv5/hard\libc.a(lib_a-atexit.o)
                              d:/local disk e_1212020131/projects/toolchain_route/compiler/7 2017-q4-major/bin/../lib/gcc/arm-none-eabi/7.2.1/../../../../arm-none-eabi/lib/thumb/v7e-m/fpv5/hard\libc.a(lib_a-__call_atexit.o) (atexit)
d:/local disk e_1212020131/projects/toolchain_route/compiler/7 2017-q4-major/bin/../lib/gcc/arm-none-eabi/7.2.1/../../../../arm-none-eabi/lib/thumb/v7e-m/fpv5/hard\libc.a(lib_a-fini.o)
                              d:/local disk e_1212020131/projects/toolchain_route/compiler/7 2017-q4-major/bin/../lib/gcc/arm-none-eabi/7.2.1/../../../../arm-none-eabi/lib/thumb/v7e-m/fpv5/hard\libc.a(lib_a-__call_atexit.o) (__libc_fini_array)
d:/local disk e_1212020131/projects/toolchain_route/compiler/7 2017-q4-major/bin/../lib/gcc/arm-none-eabi/7.2.1/../../../../arm-none-eabi/lib/thumb/v7e-m/fpv5/hard\libc.a(lib_a-lock.o)
                              d:/local disk e_1212020131/projects/toolchain_route/compiler/7 2017-q4-major/bin/../lib/gcc/arm-none-eabi/7.2.1/../../../../arm-none-eabi/lib/thumb/v7e-m/fpv5/hard\libc.a(lib_a-__call_atexit.o) (__retarget_lock_acquire_recursive)
d:/local disk e_1212020131/projects/toolchain_route/compiler/7 2017-q4-major/bin/../lib/gcc/arm-none-eabi/7.2.1/../../../../arm-none-eabi/lib/thumb/v7e-m/fpv5/hard\libc.a(lib_a-__atexit.o)
                              d:/local disk e_1212020131/projects/toolchain_route/compiler/7 2017-q4-major/bin/../lib/gcc/arm-none-eabi/7.2.1/../../../../arm-none-eabi/lib/thumb/v7e-m/fpv5/hard\libc.a(lib_a-atexit.o) (__register_exitproc)
d:/local disk e_1212020131/projects/toolchain_route/compiler/7 2017-q4-major/bin/../lib/gcc/arm-none-eabi/7.2.1/../../../../arm-none-eabi/lib/thumb/v7e-m/fpv5/hard\libnosys.a(_exit.o)
                              d:/local disk e_1212020131/projects/toolchain_route/compiler/7 2017-q4-major/bin/../lib/gcc/arm-none-eabi/7.2.1/../../../../arm-none-eabi/lib/thumb/v7e-m/fpv5/hard\libc.a(lib_a-exit.o) (_exit)

Allocating common symbols
Common symbol       size              file

__lock___atexit_recursive_mutex
                    0x1               d:/local disk e_1212020131/projects/toolchain_route/compiler/7 2017-q4-major/bin/../lib/gcc/arm-none-eabi/7.2.1/../../../../arm-none-eabi/lib/thumb/v7e-m/fpv5/hard\libc.a(lib_a-lock.o)
__lock___arc4random_mutex
                    0x1               d:/local disk e_1212020131/projects/toolchain_route/compiler/7 2017-q4-major/bin/../lib/gcc/arm-none-eabi/7.2.1/../../../../arm-none-eabi/lib/thumb/v7e-m/fpv5/hard\libc.a(lib_a-lock.o)
__lock___env_recursive_mutex
                    0x1               d:/local disk e_1212020131/projects/toolchain_route/compiler/7 2017-q4-major/bin/../lib/gcc/arm-none-eabi/7.2.1/../../../../arm-none-eabi/lib/thumb/v7e-m/fpv5/hard\libc.a(lib_a-lock.o)
__lock___sinit_recursive_mutex
                    0x1               d:/local disk e_1212020131/projects/toolchain_route/compiler/7 2017-q4-major/bin/../lib/gcc/arm-none-eabi/7.2.1/../../../../arm-none-eabi/lib/thumb/v7e-m/fpv5/hard\libc.a(lib_a-lock.o)
__lock___malloc_recursive_mutex
                    0x1               d:/local disk e_1212020131/projects/toolchain_route/compiler/7 2017-q4-major/bin/../lib/gcc/arm-none-eabi/7.2.1/../../../../arm-none-eabi/lib/thumb/v7e-m/fpv5/hard\libc.a(lib_a-lock.o)
__lock___at_quick_exit_mutex
                    0x1               d:/local disk e_1212020131/projects/toolchain_route/compiler/7 2017-q4-major/bin/../lib/gcc/arm-none-eabi/7.2.1/../../../../arm-none-eabi/lib/thumb/v7e-m/fpv5/hard\libc.a(lib_a-lock.o)
__lock___dd_hash_mutex
                    0x1               d:/local disk e_1212020131/projects/toolchain_route/compiler/7 2017-q4-major/bin/../lib/gcc/arm-none-eabi/7.2.1/../../../../arm-none-eabi/lib/thumb/v7e-m/fpv5/hard\libc.a(lib_a-lock.o)
__lock___tz_mutex   0x1               d:/local disk e_1212020131/projects/toolchain_route/compiler/7 2017-q4-major/bin/../lib/gcc/arm-none-eabi/7.2.1/../../../../arm-none-eabi/lib/thumb/v7e-m/fpv5/hard\libc.a(lib_a-lock.o)
__lock___sfp_recursive_mutex
                    0x1               d:/local disk e_1212020131/projects/toolchain_route/compiler/7 2017-q4-major/bin/../lib/gcc/arm-none-eabi/7.2.1/../../../../arm-none-eabi/lib/thumb/v7e-m/fpv5/hard\libc.a(lib_a-lock.o)

Memory Configuration

Name             Origin             Length             Attributes
FLASH            0x08008000         0x001f8000         xr
RAM              0x20000000         0x00080000         xrw
SDRAM            0xc0000000         0x02000000         xrw
*default*        0x00000000         0xffffffff

Linker script and memory map

LOAD d:/local disk e_1212020131/projects/toolchain_route/compiler/7 2017-q4-major/bin/../lib/gcc/arm-none-eabi/7.2.1/thumb/v7e-m/fpv5/hard/crti.o
LOAD d:/local disk e_1212020131/projects/toolchain_route/compiler/7 2017-q4-major/bin/../lib/gcc/arm-none-eabi/7.2.1/thumb/v7e-m/fpv5/hard/crtbegin.o
LOAD d:/local disk e_1212020131/projects/toolchain_route/compiler/7 2017-q4-major/bin/../lib/gcc/arm-none-eabi/7.2.1/../../../../arm-none-eabi/lib/thumb/v7e-m/fpv5/hard/crt0.o
LOAD ./obj/startup_router_pro_fd.o
LOAD ./obj/system_router_pro_fd.o
LOAD ./obj/main.o
LOAD ./obj/can_user.o
LOAD ./obj/route_map.o
LOAD ./obj/utils.o
LOAD ./obj/srr520_yg11_v05_in.o
LOAD ./obj/srr520_yg11_v05_out.o
LOAD ./obj/hardware.o
LOAD ./obj/can.o
LOAD d:/local disk e_1212020131/projects/toolchain_route/compiler/7 2017-q4-major/bin/../lib/gcc/arm-none-eabi/7.2.1/../../../../arm-none-eabi/lib/thumb/v7e-m/fpv5/hard\libm.a
LOAD d:/local disk e_1212020131/projects/toolchain_route/compiler/7 2017-q4-major/bin/../lib/gcc/arm-none-eabi/7.2.1/../../../../arm-none-eabi/lib/thumb/v7e-m/fpv5/hard\libc.a
LOAD d:/local disk e_1212020131/projects/toolchain_route/compiler/7 2017-q4-major/bin/../lib/gcc/arm-none-eabi/7.2.1/thumb/v7e-m/fpv5/hard\libgcc.a
LOAD d:/local disk e_1212020131/projects/toolchain_route/compiler/7 2017-q4-major/bin/../lib/gcc/arm-none-eabi/7.2.1/../../../../arm-none-eabi/lib/thumb/v7e-m/fpv5/hard\libstdc++.a
START GROUP
LOAD d:/local disk e_1212020131/projects/toolchain_route/compiler/7 2017-q4-major/bin/../lib/gcc/arm-none-eabi/7.2.1/thumb/v7e-m/fpv5/hard\libgcc.a
LOAD d:/local disk e_1212020131/projects/toolchain_route/compiler/7 2017-q4-major/bin/../lib/gcc/arm-none-eabi/7.2.1/../../../../arm-none-eabi/lib/thumb/v7e-m/fpv5/hard\libg.a
LOAD d:/local disk e_1212020131/projects/toolchain_route/compiler/7 2017-q4-major/bin/../lib/gcc/arm-none-eabi/7.2.1/../../../../arm-none-eabi/lib/thumb/v7e-m/fpv5/hard\libc.a
END GROUP
START GROUP
LOAD d:/local disk e_1212020131/projects/toolchain_route/compiler/7 2017-q4-major/bin/../lib/gcc/arm-none-eabi/7.2.1/thumb/v7e-m/fpv5/hard\libgcc.a
LOAD d:/local disk e_1212020131/projects/toolchain_route/compiler/7 2017-q4-major/bin/../lib/gcc/arm-none-eabi/7.2.1/../../../../arm-none-eabi/lib/thumb/v7e-m/fpv5/hard\libc.a
LOAD d:/local disk e_1212020131/projects/toolchain_route/compiler/7 2017-q4-major/bin/../lib/gcc/arm-none-eabi/7.2.1/../../../../arm-none-eabi/lib/thumb/v7e-m/fpv5/hard\libnosys.a
END GROUP
LOAD d:/local disk e_1212020131/projects/toolchain_route/compiler/7 2017-q4-major/bin/../lib/gcc/arm-none-eabi/7.2.1/thumb/v7e-m/fpv5/hard/crtend.o
LOAD d:/local disk e_1212020131/projects/toolchain_route/compiler/7 2017-q4-major/bin/../lib/gcc/arm-none-eabi/7.2.1/thumb/v7e-m/fpv5/hard/crtn.o
                0x08008000                __ROM_BASE = 0x8008000
                0x001f8000                __ROM_SIZE = 0x1f8000
                0x20000000                __RAM_BASE = 0x20000000
                0x00080000                __RAM_SIZE = 0x80000
                0xc0000000                __SDRAM_BASE = 0xc0000000
                0x02000000                __SDRAM_SIZE = 0x2000000
                0x00000400                __STACK_SIZE = 0x400
                0x00000008                __HEAP_SIZE = 0x8

.hw___info      0x00000020       0x20
                0x00000020        0x4 LONG 0x4e414350
                0x00000024        0x4 LONG 0x756f522d
                0x00000028        0x4 LONG 0x5f726574
                0x0000002c        0x4 LONG 0x5f6f7250
                0x00000030        0x4 LONG 0x4446
                0x00000034        0x4 LONG 0x0
                0x00000038        0x4 LONG 0x0
                0x0000003c        0x4 LONG 0x0

.image_info     0x00000100       0x10
                0x00000100        0x4 LONG 0x496e6942
                0x00000104        0x4 LONG 0x72694673
                0x00000108        0x4 LONG 0x7261776d
                0x0000010c        0x4 LONG 0x65

.text           0x08008000     0x1eb4
 *(.vectors)
 .vectors       0x08008000      0x1f8 ./obj/startup_router_pro_fd.o
                0x08008000                __Vectors
                0x08008200                . = ALIGN (0x200)
 *fill*         0x080081f8        0x8 
 *(.pFlashInfo)
 *(.text*)
 .text          0x08008200        0x0 d:/local disk e_1212020131/projects/toolchain_route/compiler/7 2017-q4-major/bin/../lib/gcc/arm-none-eabi/7.2.1/thumb/v7e-m/fpv5/hard/crti.o
 .text          0x08008200       0x40 d:/local disk e_1212020131/projects/toolchain_route/compiler/7 2017-q4-major/bin/../lib/gcc/arm-none-eabi/7.2.1/thumb/v7e-m/fpv5/hard/crtbegin.o
 .text          0x08008240       0x74 d:/local disk e_1212020131/projects/toolchain_route/compiler/7 2017-q4-major/bin/../lib/gcc/arm-none-eabi/7.2.1/../../../../arm-none-eabi/lib/thumb/v7e-m/fpv5/hard/crt0.o
                0x08008240                _start
                0x08008240                _mainCRTStartup
 .text          0x080082b4       0x94 ./obj/startup_router_pro_fd.o
                0x080082b4                RTC_Alarm_IRQHandler
                0x080082b4                EXTI2_IRQHandler
                0x080082b4                TIM8_CC_IRQHandler
                0x080082b4                DebugMon_Handler
                0x080082b4                UART8_IRQHandler
                0x080082b4                SPI4_IRQHandler
                0x080082b4                TIM1_CC_IRQHandler
                0x080082b4                DMA2_Stream5_IRQHandler
                0x080082b4                HardFault_Handler
                0x080082b4                DMA1_Stream5_IRQHandler
                0x080082b4                SysTick_Handler
                0x080082b4                CAN3_RX1_IRQHandler
                0x080082b4                PVD_IRQHandler
                0x080082b4                TAMP_STAMP_IRQHandler
                0x080082b4                PendSV_Handler
                0x080082b4                NMI_Handler
                0x080082b4                CAN2_RX1_IRQHandler
                0x080082b4                EXTI3_IRQHandler
                0x080082b4                TIM8_TRG_COM_TIM14_IRQHandler
                0x080082b4                DFSDM1_FLT1_IRQHandler
                0x080082b4                TIM1_UP_TIM10_IRQHandler
                0x080082b4                TIM8_UP_TIM13_IRQHandler
                0x080082b4                I2C3_ER_IRQHandler
                0x080082b4                DFSDM1_FLT2_IRQHandler
                0x080082b4                EXTI0_IRQHandler
                0x080082b4                I2C2_EV_IRQHandler
                0x080082b4                DMA1_Stream2_IRQHandler
                0x080082b4                CAN1_RX0_IRQHandler
                0x080082b4                FPU_IRQHandler
                0x080082b4                OTG_HS_WKUP_IRQHandler
                0x080082b4                CAN3_SCE_IRQHandler
                0x080082b4                UsageFault_Handler
                0x080082b4                CAN2_SCE_IRQHandler
                0x080082b4                DMA2_Stream2_IRQHandler
                0x080082b4                SPI1_IRQHandler
                0x080082b4                TIM6_DAC_IRQHandler
                0x080082b4                TIM1_BRK_TIM9_IRQHandler
                0x080082b4                DCMI_IRQHandler
                0x080082b4                CAN2_RX0_IRQHandler
                0x080082b4                DMA2_Stream3_IRQHandler
                0x080082b4                SAI2_IRQHandler
                0x080082b4                DFSDM1_FLT3_IRQHandler
                0x080082b4                USART6_IRQHandler
                0x080082b4                CAN3_RX0_IRQHandler
                0x080082b4                USART3_IRQHandler
                0x080082b4                SAI1_IRQHandler
                0x080082b4                CAN1_RX1_IRQHandler
                0x080082b4                UART5_IRQHandler
                0x080082b4                DMA2_Stream0_IRQHandler
                0x080082b4                TIM4_IRQHandler
                0x080082b4                QUADSPI_IRQHandler
                0x080082b4                I2C1_EV_IRQHandler
                0x080082b4                DMA1_Stream6_IRQHandler
                0x080082b4                DMA1_Stream1_IRQHandler
                0x080082b4                UART4_IRQHandler
                0x080082b4                TIM3_IRQHandler
                0x080082b4                RCC_IRQHandler
                0x080082b4                TIM8_BRK_TIM12_IRQHandler
                0x080082b4                Default_Handler
                0x080082b4                CEC_IRQHandler
                0x080082b4                EXTI15_10_IRQHandler
                0x080082b4                ADC_IRQHandler
                0x080082b4                DMA1_Stream7_IRQHandler
                0x080082b4                SPI5_IRQHandler
                0x080082b4                TIM7_IRQHandler
                0x080082b4                SDMMC1_IRQHandler
                0x080082b4                CAN2_TX_IRQHandler
                0x080082b4                TIM5_IRQHandler
                0x080082b4                DMA2_Stream7_IRQHandler
                0x080082b4                I2C3_EV_IRQHandler
                0x080082b4                EXTI9_5_IRQHandler
                0x080082b4                RTC_WKUP_IRQHandler
                0x080082b4                ETH_WKUP_IRQHandler
                0x080082b4                SPDIF_RX_IRQHandler
                0x080082b4                SPI2_IRQHandler
                0x080082b4                OTG_HS_EP1_IN_IRQHandler
                0x080082b4                MemManage_Handler
                0x080082b4                DMA1_Stream0_IRQHandler
                0x080082b4                CAN1_TX_IRQHandler
                0x080082b4                SVC_Handler
                0x080082b4                EXTI4_IRQHandler
                0x080082b4                RNG_IRQHandler
                0x080082b4                ETH_IRQHandler
                0x080082b4                OTG_HS_EP1_OUT_IRQHandler
                0x080082b4                WWDG_IRQHandler
                0x080082b4                SPI6_IRQHandler
                0x080082b4                I2C4_EV_IRQHandler
                0x080082b4                MDIOS_IRQHandler
                0x080082b4                CAN3_TX_IRQHandler
                0x080082b4                TIM2_IRQHandler
                0x080082b4                OTG_FS_WKUP_IRQHandler
                0x080082b4                TIM1_TRG_COM_TIM11_IRQHandler
                0x080082b4                OTG_HS_IRQHandler
                0x080082b4                DMA2D_IRQHandler
                0x080082b4                EXTI1_IRQHandler
                0x080082b4                SDMMC2_IRQHandler
                0x080082b4                UART7_IRQHandler
                0x080082b4                USART2_IRQHandler
                0x080082b4                DFSDM1_FLT0_IRQHandler
                0x080082b4                I2C2_ER_IRQHandler
                0x080082b4                DMA2_Stream1_IRQHandler
                0x080082b4                CAN1_SCE_IRQHandler
                0x080082b4                FLASH_IRQHandler
                0x080082b4                DMA2_Stream4_IRQHandler
                0x080082b4                BusFault_Handler
                0x080082b4                USART1_IRQHandler
                0x080082b4                OTG_FS_IRQHandler
                0x080082b4                SPI3_IRQHandler
                0x080082b4                DMA1_Stream4_IRQHandler
                0x080082b4                I2C1_ER_IRQHandler
                0x080082b4                FMC_IRQHandler
                0x080082b4                LPTIM1_IRQHandler
                0x080082b4                I2C4_ER_IRQHandler
                0x080082b4                DMA2_Stream6_IRQHandler
                0x080082b4                DMA1_Stream3_IRQHandler
                0x080082b8                Reset_Handler
 .text          0x08008348       0x9c ./obj/system_router_pro_fd.o
                0x08008348                SystemCoreClockUpdate
                0x080083b8                SystemInit
 .text          0x080083e4        0x0 ./obj/main.o
 .text.startup  0x080083e4      0x13c ./obj/main.o
                0x080083e4                main
 .text          0x08008520      0x124 ./obj/can_user.o
                0x08008520                CAN_UserRead
                0x08008568                CAN_UserInvokeBootloader
                0x08008590                CAN_UserInit
                0x0800862c                CAN_2_CANFD_Routing
                0x08008630                CANFD_2_CAN_Routing
 .text          0x08008644      0x2bc ./obj/route_map.o
                0x08008644                IndexToOutputMsg
                0x08008658                mapDataFromInToOutOne2One
                0x080086dc                set_message
                0x08008790                srr_canfd2can_route_by_signals
 .text          0x08008900        0x0 ./obj/utils.o
 .text          0x08008900      0x25c ./obj/srr520_yg11_v05_in.o
                0x08008900                srr520_yg11_v05_in_srr_obj_suffix_0_suffix_1_unpack
 .text          0x08008b5c      0x260 ./obj/srr520_yg11_v05_out.o
                0x08008b5c                srr520_yg11_v05_out_srr_obj_suffix_0_suffix_1_0_pack
                0x08008c04                srr520_yg11_v05_out_srr_obj_suffix_0_suffix_1_1_pack
                0x08008c94                srr520_yg11_v05_out_srr_obj_suffix_0_suffix_1_2_pack
                0x08008d10                srr520_yg11_v05_out_srr_obj_suffix_0_suffix_1_3_pack
 .text          0x08008dbc      0x36c ./obj/hardware.o
                0x08008de0                EEPROM_Init
                0x08008de4                HW_PassUsbToHost
                0x08008e08                HW_PassUsbToMe
                0x08008e60                HW_ResetModule
                0x08008e7c                HW_GetDIN
                0x08008e9c                HW_GetModuleID
                0x08008ebc                HW_JumpToBootloader
                0x08008f08                HW_SetLED
                0x08009070                HW_EnterPowerDown
                0x08009118                HW_Init
 .text          0x08009128      0x680 ./obj/can.o
                0x08009128                __WaitMicros
                0x0800913c                CAN_Write
                0x080092fc                CAN_Read
                0x080093b4                CAN_FilterAdd
                0x08009498                CAN_FilterRem
                0x08009578                CAN_FilterReset
                0x080095c0                CAN_UnInitialize
                0x080095e8                CAN_Initialize
                0x0800976c                CAN_Startup
 .text          0x080097a8        0x0 d:/local disk e_1212020131/projects/toolchain_route/compiler/7 2017-q4-major/bin/../lib/gcc/arm-none-eabi/7.2.1/../../../../arm-none-eabi/lib/thumb/v7e-m/fpv5/hard\libc.a(lib_a-exit.o)
 .text.exit     0x080097a8       0x20 d:/local disk e_1212020131/projects/toolchain_route/compiler/7 2017-q4-major/bin/../lib/gcc/arm-none-eabi/7.2.1/../../../../arm-none-eabi/lib/thumb/v7e-m/fpv5/hard\libc.a(lib_a-exit.o)
                0x080097a8                exit
 .text          0x080097c8        0x0 d:/local disk e_1212020131/projects/toolchain_route/compiler/7 2017-q4-major/bin/../lib/gcc/arm-none-eabi/7.2.1/../../../../arm-none-eabi/lib/thumb/v7e-m/fpv5/hard\libc.a(lib_a-impure.o)
 .text          0x080097c8        0x0 d:/local disk e_1212020131/projects/toolchain_route/compiler/7 2017-q4-major/bin/../lib/gcc/arm-none-eabi/7.2.1/../../../../arm-none-eabi/lib/thumb/v7e-m/fpv5/hard\libc.a(lib_a-init.o)
 .text.__libc_init_array
                0x080097c8       0x48 d:/local disk e_1212020131/projects/toolchain_route/compiler/7 2017-q4-major/bin/../lib/gcc/arm-none-eabi/7.2.1/../../../../arm-none-eabi/lib/thumb/v7e-m/fpv5/hard\libc.a(lib_a-init.o)
                0x080097c8                __libc_init_array
 .text          0x08009810      0x134 d:/local disk e_1212020131/projects/toolchain_route/compiler/7 2017-q4-major/bin/../lib/gcc/arm-none-eabi/7.2.1/../../../../arm-none-eabi/lib/thumb/v7e-m/fpv5/hard\libc.a(lib_a-memcpy.o)
                0x08009810                memcpy
 .text          0x08009944        0x0 d:/local disk e_1212020131/projects/toolchain_route/compiler/7 2017-q4-major/bin/../lib/gcc/arm-none-eabi/7.2.1/../../../../arm-none-eabi/lib/thumb/v7e-m/fpv5/hard\libc.a(lib_a-memset.o)
 .text.memset   0x08009944       0x94 d:/local disk e_1212020131/projects/toolchain_route/compiler/7 2017-q4-major/bin/../lib/gcc/arm-none-eabi/7.2.1/../../../../arm-none-eabi/lib/thumb/v7e-m/fpv5/hard\libc.a(lib_a-memset.o)
                0x08009944                memset
 .text          0x080099d8        0x0 d:/local disk e_1212020131/projects/toolchain_route/compiler/7 2017-q4-major/bin/../lib/gcc/arm-none-eabi/7.2.1/../../../../arm-none-eabi/lib/thumb/v7e-m/fpv5/hard\libc.a(lib_a-strncpy.o)
 .text.strncpy  0x080099d8       0x64 d:/local disk e_1212020131/projects/toolchain_route/compiler/7 2017-q4-major/bin/../lib/gcc/arm-none-eabi/7.2.1/../../../../arm-none-eabi/lib/thumb/v7e-m/fpv5/hard\libc.a(lib_a-strncpy.o)
                0x080099d8                strncpy
 .text          0x08009a3c        0x0 d:/local disk e_1212020131/projects/toolchain_route/compiler/7 2017-q4-major/bin/../lib/gcc/arm-none-eabi/7.2.1/../../../../arm-none-eabi/lib/thumb/v7e-m/fpv5/hard\libc.a(lib_a-__call_atexit.o)
 .text.startup.register_fini
                0x08009a3c       0x14 d:/local disk e_1212020131/projects/toolchain_route/compiler/7 2017-q4-major/bin/../lib/gcc/arm-none-eabi/7.2.1/../../../../arm-none-eabi/lib/thumb/v7e-m/fpv5/hard\libc.a(lib_a-__call_atexit.o)
 .text.__call_exitprocs
                0x08009a50       0xe8 d:/local disk e_1212020131/projects/toolchain_route/compiler/7 2017-q4-major/bin/../lib/gcc/arm-none-eabi/7.2.1/../../../../arm-none-eabi/lib/thumb/v7e-m/fpv5/hard\libc.a(lib_a-__call_atexit.o)
                0x08009a50                __call_exitprocs
 .text          0x08009b38        0x0 d:/local disk e_1212020131/projects/toolchain_route/compiler/7 2017-q4-major/bin/../lib/gcc/arm-none-eabi/7.2.1/../../../../arm-none-eabi/lib/thumb/v7e-m/fpv5/hard\libc.a(lib_a-atexit.o)
 .text.atexit   0x08009b38        0xc d:/local disk e_1212020131/projects/toolchain_route/compiler/7 2017-q4-major/bin/../lib/gcc/arm-none-eabi/7.2.1/../../../../arm-none-eabi/lib/thumb/v7e-m/fpv5/hard\libc.a(lib_a-atexit.o)
                0x08009b38                atexit
 .text          0x08009b44        0x0 d:/local disk e_1212020131/projects/toolchain_route/compiler/7 2017-q4-major/bin/../lib/gcc/arm-none-eabi/7.2.1/../../../../arm-none-eabi/lib/thumb/v7e-m/fpv5/hard\libc.a(lib_a-fini.o)
 .text.__libc_fini_array
                0x08009b44       0x34 d:/local disk e_1212020131/projects/toolchain_route/compiler/7 2017-q4-major/bin/../lib/gcc/arm-none-eabi/7.2.1/../../../../arm-none-eabi/lib/thumb/v7e-m/fpv5/hard\libc.a(lib_a-fini.o)
                0x08009b44                __libc_fini_array
 .text          0x08009b78        0x0 d:/local disk e_1212020131/projects/toolchain_route/compiler/7 2017-q4-major/bin/../lib/gcc/arm-none-eabi/7.2.1/../../../../arm-none-eabi/lib/thumb/v7e-m/fpv5/hard\libc.a(lib_a-lock.o)
 .text.__retarget_lock_init
                0x08009b78        0x4 d:/local disk e_1212020131/projects/toolchain_route/compiler/7 2017-q4-major/bin/../lib/gcc/arm-none-eabi/7.2.1/../../../../arm-none-eabi/lib/thumb/v7e-m/fpv5/hard\libc.a(lib_a-lock.o)
                0x08009b78                __retarget_lock_init
 .text.__retarget_lock_init_recursive
                0x08009b7c        0x4 d:/local disk e_1212020131/projects/toolchain_route/compiler/7 2017-q4-major/bin/../lib/gcc/arm-none-eabi/7.2.1/../../../../arm-none-eabi/lib/thumb/v7e-m/fpv5/hard\libc.a(lib_a-lock.o)
                0x08009b7c                __retarget_lock_init_recursive
 .text.__retarget_lock_close
                0x08009b80        0x4 d:/local disk e_1212020131/projects/toolchain_route/compiler/7 2017-q4-major/bin/../lib/gcc/arm-none-eabi/7.2.1/../../../../arm-none-eabi/lib/thumb/v7e-m/fpv5/hard\libc.a(lib_a-lock.o)
                0x08009b80                __retarget_lock_close
 .text.__retarget_lock_close_recursive
                0x08009b84        0x4 d:/local disk e_1212020131/projects/toolchain_route/compiler/7 2017-q4-major/bin/../lib/gcc/arm-none-eabi/7.2.1/../../../../arm-none-eabi/lib/thumb/v7e-m/fpv5/hard\libc.a(lib_a-lock.o)
                0x08009b84                __retarget_lock_close_recursive
 .text.__retarget_lock_acquire
                0x08009b88        0x4 d:/local disk e_1212020131/projects/toolchain_route/compiler/7 2017-q4-major/bin/../lib/gcc/arm-none-eabi/7.2.1/../../../../arm-none-eabi/lib/thumb/v7e-m/fpv5/hard\libc.a(lib_a-lock.o)
                0x08009b88                __retarget_lock_acquire
 .text.__retarget_lock_acquire_recursive
                0x08009b8c        0x4 d:/local disk e_1212020131/projects/toolchain_route/compiler/7 2017-q4-major/bin/../lib/gcc/arm-none-eabi/7.2.1/../../../../arm-none-eabi/lib/thumb/v7e-m/fpv5/hard\libc.a(lib_a-lock.o)
                0x08009b8c                __retarget_lock_acquire_recursive
 .text.__retarget_lock_try_acquire
                0x08009b90        0x4 d:/local disk e_1212020131/projects/toolchain_route/compiler/7 2017-q4-major/bin/../lib/gcc/arm-none-eabi/7.2.1/../../../../arm-none-eabi/lib/thumb/v7e-m/fpv5/hard\libc.a(lib_a-lock.o)
                0x08009b90                __retarget_lock_try_acquire
 .text.__retarget_lock_try_acquire_recursive
                0x08009b94        0x4 d:/local disk e_1212020131/projects/toolchain_route/compiler/7 2017-q4-major/bin/../lib/gcc/arm-none-eabi/7.2.1/../../../../arm-none-eabi/lib/thumb/v7e-m/fpv5/hard\libc.a(lib_a-lock.o)
                0x08009b94                __retarget_lock_try_acquire_recursive
 .text.__retarget_lock_release
                0x08009b98        0x4 d:/local disk e_1212020131/projects/toolchain_route/compiler/7 2017-q4-major/bin/../lib/gcc/arm-none-eabi/7.2.1/../../../../arm-none-eabi/lib/thumb/v7e-m/fpv5/hard\libc.a(lib_a-lock.o)
                0x08009b98                __retarget_lock_release
 .text.__retarget_lock_release_recursive
                0x08009b9c        0x4 d:/local disk e_1212020131/projects/toolchain_route/compiler/7 2017-q4-major/bin/../lib/gcc/arm-none-eabi/7.2.1/../../../../arm-none-eabi/lib/thumb/v7e-m/fpv5/hard\libc.a(lib_a-lock.o)
                0x08009b9c                __retarget_lock_release_recursive
 .text          0x08009ba0        0x0 d:/local disk e_1212020131/projects/toolchain_route/compiler/7 2017-q4-major/bin/../lib/gcc/arm-none-eabi/7.2.1/../../../../arm-none-eabi/lib/thumb/v7e-m/fpv5/hard\libc.a(lib_a-__atexit.o)
 .text.__register_exitproc
                0x08009ba0       0xc0 d:/local disk e_1212020131/projects/toolchain_route/compiler/7 2017-q4-major/bin/../lib/gcc/arm-none-eabi/7.2.1/../../../../arm-none-eabi/lib/thumb/v7e-m/fpv5/hard\libc.a(lib_a-__atexit.o)
                0x08009ba0                __register_exitproc
 .text          0x08009c60        0x0 d:/local disk e_1212020131/projects/toolchain_route/compiler/7 2017-q4-major/bin/../lib/gcc/arm-none-eabi/7.2.1/../../../../arm-none-eabi/lib/thumb/v7e-m/fpv5/hard\libnosys.a(_exit.o)
 .text._exit    0x08009c60        0x4 d:/local disk e_1212020131/projects/toolchain_route/compiler/7 2017-q4-major/bin/../lib/gcc/arm-none-eabi/7.2.1/../../../../arm-none-eabi/lib/thumb/v7e-m/fpv5/hard\libnosys.a(_exit.o)
                0x08009c60                _exit
 .text          0x08009c64        0x0 d:/local disk e_1212020131/projects/toolchain_route/compiler/7 2017-q4-major/bin/../lib/gcc/arm-none-eabi/7.2.1/thumb/v7e-m/fpv5/hard/crtend.o
 .text          0x08009c64        0x0 d:/local disk e_1212020131/projects/toolchain_route/compiler/7 2017-q4-major/bin/../lib/gcc/arm-none-eabi/7.2.1/thumb/v7e-m/fpv5/hard/crtn.o
 *(.init)
 .init          0x08009c64        0x4 d:/local disk e_1212020131/projects/toolchain_route/compiler/7 2017-q4-major/bin/../lib/gcc/arm-none-eabi/7.2.1/thumb/v7e-m/fpv5/hard/crti.o
                0x08009c64                _init
 .init          0x08009c68        0x8 d:/local disk e_1212020131/projects/toolchain_route/compiler/7 2017-q4-major/bin/../lib/gcc/arm-none-eabi/7.2.1/thumb/v7e-m/fpv5/hard/crtn.o
 *(.fini)
 .fini          0x08009c70        0x4 d:/local disk e_1212020131/projects/toolchain_route/compiler/7 2017-q4-major/bin/../lib/gcc/arm-none-eabi/7.2.1/thumb/v7e-m/fpv5/hard/crti.o
                0x08009c70                _fini
 .fini          0x08009c74        0x8 d:/local disk e_1212020131/projects/toolchain_route/compiler/7 2017-q4-major/bin/../lib/gcc/arm-none-eabi/7.2.1/thumb/v7e-m/fpv5/hard/crtn.o
 *crtbegin.o(.ctors)
 *crtbegin?.o(.ctors)
 *(EXCLUDE_FILE(*crtend.o *crtend?.o) .ctors)
 *(SORT_BY_NAME(.ctors.*))
 *(.ctors)
 *crtbegin.o(.dtors)
 *crtbegin?.o(.dtors)
 *(EXCLUDE_FILE(*crtend.o *crtend?.o) .dtors)
 *(SORT_BY_NAME(.dtors.*))
 *(.dtors)
 *(.rodata*)
 .rodata        0x08009c7c       0x18 ./obj/system_router_pro_fd.o
                0x08009c7c                AHBPrescTable
                0x08009c8c                APBPrescTable
 .rodata        0x08009c94       0x13 ./obj/main.o
                0x08009c94                Ident
 *fill*         0x08009ca7        0x1 
 .rodata        0x08009ca8       0xf0 ./obj/can_user.o
 .rodata        0x08009d98       0xb0 ./obj/route_map.o
                0x08009d98                map_table_one2one_CAN_2_CAN
                0x08009df8                srr_can_ids
 .rodata        0x08009e48       0x10 ./obj/hardware.o
 .rodata.str1.4
                0x08009e58       0x14 ./obj/hardware.o
                                 0x11 (size before relaxing)
 .rodata        0x08009e6c       0x40 ./obj/can.o
 .rodata._global_impure_ptr
                0x08009eac        0x4 d:/local disk e_1212020131/projects/toolchain_route/compiler/7 2017-q4-major/bin/../lib/gcc/arm-none-eabi/7.2.1/../../../../arm-none-eabi/lib/thumb/v7e-m/fpv5/hard\libc.a(lib_a-impure.o)
                0x08009eac                _global_impure_ptr
 *(.eh_frame*)
 .eh_frame      0x08009eb0        0x0 d:/local disk e_1212020131/projects/toolchain_route/compiler/7 2017-q4-major/bin/../lib/gcc/arm-none-eabi/7.2.1/thumb/v7e-m/fpv5/hard/crtbegin.o
 .eh_frame      0x08009eb0        0x4 d:/local disk e_1212020131/projects/toolchain_route/compiler/7 2017-q4-major/bin/../lib/gcc/arm-none-eabi/7.2.1/thumb/v7e-m/fpv5/hard/crtend.o

.glue_7         0x08009eb4        0x0
 .glue_7        0x08009eb4        0x0 linker stubs

.glue_7t        0x08009eb4        0x0
 .glue_7t       0x08009eb4        0x0 linker stubs

.vfp11_veneer   0x08009eb4        0x0
 .vfp11_veneer  0x08009eb4        0x0 linker stubs

.v4_bx          0x08009eb4        0x0
 .v4_bx         0x08009eb4        0x0 linker stubs

.iplt           0x08009eb4        0x0
 .iplt          0x08009eb4        0x0 d:/local disk e_1212020131/projects/toolchain_route/compiler/7 2017-q4-major/bin/../lib/gcc/arm-none-eabi/7.2.1/thumb/v7e-m/fpv5/hard/crtbegin.o

.ARM.extab      0x08009eb4        0x0
 *(.ARM.extab* .gnu.linkonce.armextab.*)
 .ARM.extab     0x08009eb4        0x0 d:/local disk e_1212020131/projects/toolchain_route/compiler/7 2017-q4-major/bin/../lib/gcc/arm-none-eabi/7.2.1/../../../../arm-none-eabi/lib/thumb/v7e-m/fpv5/hard/crt0.o
                0x08009eb4                __exidx_start = .

.ARM.exidx      0x08009eb4        0x8
 *(.ARM.exidx* .gnu.linkonce.armexidx.*)
 .ARM.exidx     0x08009eb4        0x8 d:/local disk e_1212020131/projects/toolchain_route/compiler/7 2017-q4-major/bin/../lib/gcc/arm-none-eabi/7.2.1/../../../../arm-none-eabi/lib/thumb/v7e-m/fpv5/hard/crt0.o
                0x08009ebc                __exidx_end = .

.rel.dyn        0x08009ebc        0x0
 .rel.iplt      0x08009ebc        0x0 d:/local disk e_1212020131/projects/toolchain_route/compiler/7 2017-q4-major/bin/../lib/gcc/arm-none-eabi/7.2.1/thumb/v7e-m/fpv5/hard/crtbegin.o

.copy.table     0x08009ebc       0x18
                0x08009ebc                . = ALIGN (0x4)
                0x08009ebc                __copy_table_start__ = .
                0x08009ebc        0x4 LONG 0x8009ee4 __etext
                0x08009ec0        0x4 LONG 0x20000060 __data_start__
                0x08009ec4        0x4 LONG 0x116 ((__data_end__ - __data_start__) / 0x4)
                0x08009ec8        0x4 LONG 0x800a33c __etext_sdram
                0x08009ecc        0x4 LONG 0xc0000000 __sdram_data_start__
                0x08009ed0        0x4 LONG 0x0 ((__sdram_data_end__ - __sdram_data_start__) / 0x4)
 */()
                0x08009ed4                __copy_table_end__ = .

.zero.table     0x08009ed4       0x10
                0x08009ed4                . = ALIGN (0x4)
                0x08009ed4                __zero_table_start__ = .
                0x08009ed4        0x4 LONG 0x20000000 __bss_dtcm_start__
                0x08009ed8        0x4 LONG 0x18 ((__bss_dtcm_end__ - __bss_dtcm_start__) / 0x4)
                0x08009edc        0x4 LONG 0xc0000000 __bss_sdram_start__
                0x08009ee0        0x4 LONG 0x0 ((__bss_sdram_end__ - __bss_sdram_start__) / 0x4)
                0x08009ee4                __zero_table_end__ = .
                0x08009ee4                __etext = ALIGN (0x4)

.bss.dtcm       0x20000000       0x60
                0x20000000                . = ALIGN (0x4)
                0x20000000                __bss_dtcm_start__ = .
 *(.bss.dtcm)
 .bss.dtcm      0x20000000       0x60 ./obj/main.o
 *(.bss.dtcm.*)
                0x20000060                . = ALIGN (0x4)
                0x20000060                __bss_dtcm_end__ = .

.data           0x20000060      0x458 load address 0x08009ee4
                0x20000060                __data_start__ = .
 *(vtable)
 *(.data)
 .data          0x20000060        0x0 d:/local disk e_1212020131/projects/toolchain_route/compiler/7 2017-q4-major/bin/../lib/gcc/arm-none-eabi/7.2.1/thumb/v7e-m/fpv5/hard/crti.o
 .data          0x20000060        0x4 d:/local disk e_1212020131/projects/toolchain_route/compiler/7 2017-q4-major/bin/../lib/gcc/arm-none-eabi/7.2.1/thumb/v7e-m/fpv5/hard/crtbegin.o
                0x20000060                __dso_handle
 .data          0x20000064        0x0 d:/local disk e_1212020131/projects/toolchain_route/compiler/7 2017-q4-major/bin/../lib/gcc/arm-none-eabi/7.2.1/../../../../arm-none-eabi/lib/thumb/v7e-m/fpv5/hard/crt0.o
 .data          0x20000064        0x0 ./obj/startup_router_pro_fd.o
 .data          0x20000064        0x4 ./obj/system_router_pro_fd.o
                0x20000064                SystemCoreClock
 .data          0x20000068        0x0 ./obj/main.o
 .data          0x20000068        0x0 ./obj/can_user.o
 .data          0x20000068       0x10 ./obj/route_map.o
                0x20000068                m_data_length_map
 .data          0x20000078        0x0 ./obj/utils.o
 .data          0x20000078        0x0 ./obj/srr520_yg11_v05_in.o
 .data          0x20000078        0x0 ./obj/srr520_yg11_v05_out.o
 .data          0x20000078        0x0 ./obj/hardware.o
 .data          0x20000078        0x0 ./obj/can.o
 .data          0x20000078        0x0 d:/local disk e_1212020131/projects/toolchain_route/compiler/7 2017-q4-major/bin/../lib/gcc/arm-none-eabi/7.2.1/../../../../arm-none-eabi/lib/thumb/v7e-m/fpv5/hard\libc.a(lib_a-exit.o)
 .data          0x20000078        0x0 d:/local disk e_1212020131/projects/toolchain_route/compiler/7 2017-q4-major/bin/../lib/gcc/arm-none-eabi/7.2.1/../../../../arm-none-eabi/lib/thumb/v7e-m/fpv5/hard\libc.a(lib_a-impure.o)
 .data          0x20000078        0x0 d:/local disk e_1212020131/projects/toolchain_route/compiler/7 2017-q4-major/bin/../lib/gcc/arm-none-eabi/7.2.1/../../../../arm-none-eabi/lib/thumb/v7e-m/fpv5/hard\libc.a(lib_a-init.o)
 .data          0x20000078        0x0 d:/local disk e_1212020131/projects/toolchain_route/compiler/7 2017-q4-major/bin/../lib/gcc/arm-none-eabi/7.2.1/../../../../arm-none-eabi/lib/thumb/v7e-m/fpv5/hard\libc.a(lib_a-memcpy.o)
 .data          0x20000078        0x0 d:/local disk e_1212020131/projects/toolchain_route/compiler/7 2017-q4-major/bin/../lib/gcc/arm-none-eabi/7.2.1/../../../../arm-none-eabi/lib/thumb/v7e-m/fpv5/hard\libc.a(lib_a-memset.o)
 .data          0x20000078        0x0 d:/local disk e_1212020131/projects/toolchain_route/compiler/7 2017-q4-major/bin/../lib/gcc/arm-none-eabi/7.2.1/../../../../arm-none-eabi/lib/thumb/v7e-m/fpv5/hard\libc.a(lib_a-strncpy.o)
 .data          0x20000078        0x0 d:/local disk e_1212020131/projects/toolchain_route/compiler/7 2017-q4-major/bin/../lib/gcc/arm-none-eabi/7.2.1/../../../../arm-none-eabi/lib/thumb/v7e-m/fpv5/hard\libc.a(lib_a-__call_atexit.o)
 .data          0x20000078        0x0 d:/local disk e_1212020131/projects/toolchain_route/compiler/7 2017-q4-major/bin/../lib/gcc/arm-none-eabi/7.2.1/../../../../arm-none-eabi/lib/thumb/v7e-m/fpv5/hard\libc.a(lib_a-atexit.o)
 .data          0x20000078        0x0 d:/local disk e_1212020131/projects/toolchain_route/compiler/7 2017-q4-major/bin/../lib/gcc/arm-none-eabi/7.2.1/../../../../arm-none-eabi/lib/thumb/v7e-m/fpv5/hard\libc.a(lib_a-fini.o)
 .data          0x20000078        0x0 d:/local disk e_1212020131/projects/toolchain_route/compiler/7 2017-q4-major/bin/../lib/gcc/arm-none-eabi/7.2.1/../../../../arm-none-eabi/lib/thumb/v7e-m/fpv5/hard\libc.a(lib_a-lock.o)
 .data          0x20000078        0x0 d:/local disk e_1212020131/projects/toolchain_route/compiler/7 2017-q4-major/bin/../lib/gcc/arm-none-eabi/7.2.1/../../../../arm-none-eabi/lib/thumb/v7e-m/fpv5/hard\libc.a(lib_a-__atexit.o)
 .data          0x20000078        0x0 d:/local disk e_1212020131/projects/toolchain_route/compiler/7 2017-q4-major/bin/../lib/gcc/arm-none-eabi/7.2.1/../../../../arm-none-eabi/lib/thumb/v7e-m/fpv5/hard\libnosys.a(_exit.o)
 .data          0x20000078        0x0 d:/local disk e_1212020131/projects/toolchain_route/compiler/7 2017-q4-major/bin/../lib/gcc/arm-none-eabi/7.2.1/thumb/v7e-m/fpv5/hard/crtend.o
 .data          0x20000078        0x0 d:/local disk e_1212020131/projects/toolchain_route/compiler/7 2017-q4-major/bin/../lib/gcc/arm-none-eabi/7.2.1/thumb/v7e-m/fpv5/hard/crtn.o
 *(.data.*)
 .data._impure_ptr
                0x20000078        0x4 d:/local disk e_1212020131/projects/toolchain_route/compiler/7 2017-q4-major/bin/../lib/gcc/arm-none-eabi/7.2.1/../../../../arm-none-eabi/lib/thumb/v7e-m/fpv5/hard\libc.a(lib_a-impure.o)
                0x20000078                _impure_ptr
 *fill*         0x2000007c        0x4 
 .data.impure_data
                0x20000080      0x428 d:/local disk e_1212020131/projects/toolchain_route/compiler/7 2017-q4-major/bin/../lib/gcc/arm-none-eabi/7.2.1/../../../../arm-none-eabi/lib/thumb/v7e-m/fpv5/hard\libc.a(lib_a-impure.o)
 .data.__atexit_recursive_mutex
                0x200004a8        0x4 d:/local disk e_1212020131/projects/toolchain_route/compiler/7 2017-q4-major/bin/../lib/gcc/arm-none-eabi/7.2.1/../../../../arm-none-eabi/lib/thumb/v7e-m/fpv5/hard\libc.a(lib_a-__call_atexit.o)
                0x200004a8                __atexit_recursive_mutex
                0x200004ac                . = ALIGN (0x4)
                0x200004ac                PROVIDE (__preinit_array_start, .)
 *(.preinit_array)
                0x200004ac                PROVIDE (__preinit_array_end, .)
                0x200004ac                . = ALIGN (0x4)
                0x200004ac                PROVIDE (__init_array_start, .)
 *(SORT_BY_NAME(.init_array.*))
 .init_array.00000
                0x200004ac        0x4 d:/local disk e_1212020131/projects/toolchain_route/compiler/7 2017-q4-major/bin/../lib/gcc/arm-none-eabi/7.2.1/../../../../arm-none-eabi/lib/thumb/v7e-m/fpv5/hard\libc.a(lib_a-__call_atexit.o)
 *(.init_array)
 .init_array    0x200004b0        0x4 d:/local disk e_1212020131/projects/toolchain_route/compiler/7 2017-q4-major/bin/../lib/gcc/arm-none-eabi/7.2.1/thumb/v7e-m/fpv5/hard/crtbegin.o
                0x200004b4                PROVIDE (__init_array_end, .)
                0x200004b4                . = ALIGN (0x4)
                0x200004b4                PROVIDE (__fini_array_start, .)
 *(SORT_BY_NAME(.fini_array.*))
 *(.fini_array)
 .fini_array    0x200004b4        0x4 d:/local disk e_1212020131/projects/toolchain_route/compiler/7 2017-q4-major/bin/../lib/gcc/arm-none-eabi/7.2.1/thumb/v7e-m/fpv5/hard/crtbegin.o
                0x200004b8                PROVIDE (__fini_array_end, .)
 *(.jcr*)
                0x200004b8                . = ALIGN (0x4)
                0x200004b8                __data_end__ = .

.igot.plt       0x200004b8        0x0 load address 0x0800a33c
 .igot.plt      0x200004b8        0x0 d:/local disk e_1212020131/projects/toolchain_route/compiler/7 2017-q4-major/bin/../lib/gcc/arm-none-eabi/7.2.1/thumb/v7e-m/fpv5/hard/crtbegin.o

.bss            0x200004b8      0x64c
                0x200004b8                . = ALIGN (0x4)
                0x200004b8                __bss_start__ = .
 *(.bss)
 .bss           0x200004b8        0x0 d:/local disk e_1212020131/projects/toolchain_route/compiler/7 2017-q4-major/bin/../lib/gcc/arm-none-eabi/7.2.1/thumb/v7e-m/fpv5/hard/crti.o
 .bss           0x200004b8       0x1c d:/local disk e_1212020131/projects/toolchain_route/compiler/7 2017-q4-major/bin/../lib/gcc/arm-none-eabi/7.2.1/thumb/v7e-m/fpv5/hard/crtbegin.o
 .bss           0x200004d4        0x0 d:/local disk e_1212020131/projects/toolchain_route/compiler/7 2017-q4-major/bin/../lib/gcc/arm-none-eabi/7.2.1/../../../../arm-none-eabi/lib/thumb/v7e-m/fpv5/hard/crt0.o
 .bss           0x200004d4        0x0 ./obj/startup_router_pro_fd.o
 .bss           0x200004d4        0x0 ./obj/system_router_pro_fd.o
 .bss           0x200004d4        0x6 ./obj/main.o
 .bss           0x200004da        0x0 ./obj/can_user.o
 .bss           0x200004da        0x0 ./obj/route_map.o
 .bss           0x200004da        0x0 ./obj/utils.o
 .bss           0x200004da        0x0 ./obj/srr520_yg11_v05_in.o
 .bss           0x200004da        0x0 ./obj/srr520_yg11_v05_out.o
 .bss           0x200004da        0x0 ./obj/hardware.o
 *fill*         0x200004da        0x2 
 .bss           0x200004dc      0x604 ./obj/can.o
 .bss           0x20000ae0        0x0 d:/local disk e_1212020131/projects/toolchain_route/compiler/7 2017-q4-major/bin/../lib/gcc/arm-none-eabi/7.2.1/../../../../arm-none-eabi/lib/thumb/v7e-m/fpv5/hard\libc.a(lib_a-exit.o)
 .bss           0x20000ae0        0x0 d:/local disk e_1212020131/projects/toolchain_route/compiler/7 2017-q4-major/bin/../lib/gcc/arm-none-eabi/7.2.1/../../../../arm-none-eabi/lib/thumb/v7e-m/fpv5/hard\libc.a(lib_a-impure.o)
 .bss           0x20000ae0        0x0 d:/local disk e_1212020131/projects/toolchain_route/compiler/7 2017-q4-major/bin/../lib/gcc/arm-none-eabi/7.2.1/../../../../arm-none-eabi/lib/thumb/v7e-m/fpv5/hard\libc.a(lib_a-init.o)
 .bss           0x20000ae0        0x0 d:/local disk e_1212020131/projects/toolchain_route/compiler/7 2017-q4-major/bin/../lib/gcc/arm-none-eabi/7.2.1/../../../../arm-none-eabi/lib/thumb/v7e-m/fpv5/hard\libc.a(lib_a-memcpy.o)
 .bss           0x20000ae0        0x0 d:/local disk e_1212020131/projects/toolchain_route/compiler/7 2017-q4-major/bin/../lib/gcc/arm-none-eabi/7.2.1/../../../../arm-none-eabi/lib/thumb/v7e-m/fpv5/hard\libc.a(lib_a-memset.o)
 .bss           0x20000ae0        0x0 d:/local disk e_1212020131/projects/toolchain_route/compiler/7 2017-q4-major/bin/../lib/gcc/arm-none-eabi/7.2.1/../../../../arm-none-eabi/lib/thumb/v7e-m/fpv5/hard\libc.a(lib_a-strncpy.o)
 .bss           0x20000ae0        0x0 d:/local disk e_1212020131/projects/toolchain_route/compiler/7 2017-q4-major/bin/../lib/gcc/arm-none-eabi/7.2.1/../../../../arm-none-eabi/lib/thumb/v7e-m/fpv5/hard\libc.a(lib_a-__call_atexit.o)
 .bss           0x20000ae0        0x0 d:/local disk e_1212020131/projects/toolchain_route/compiler/7 2017-q4-major/bin/../lib/gcc/arm-none-eabi/7.2.1/../../../../arm-none-eabi/lib/thumb/v7e-m/fpv5/hard\libc.a(lib_a-atexit.o)
 .bss           0x20000ae0        0x0 d:/local disk e_1212020131/projects/toolchain_route/compiler/7 2017-q4-major/bin/../lib/gcc/arm-none-eabi/7.2.1/../../../../arm-none-eabi/lib/thumb/v7e-m/fpv5/hard\libc.a(lib_a-fini.o)
 .bss           0x20000ae0        0x0 d:/local disk e_1212020131/projects/toolchain_route/compiler/7 2017-q4-major/bin/../lib/gcc/arm-none-eabi/7.2.1/../../../../arm-none-eabi/lib/thumb/v7e-m/fpv5/hard\libc.a(lib_a-lock.o)
 .bss           0x20000ae0        0x0 d:/local disk e_1212020131/projects/toolchain_route/compiler/7 2017-q4-major/bin/../lib/gcc/arm-none-eabi/7.2.1/../../../../arm-none-eabi/lib/thumb/v7e-m/fpv5/hard\libc.a(lib_a-__atexit.o)
 .bss           0x20000ae0        0x0 d:/local disk e_1212020131/projects/toolchain_route/compiler/7 2017-q4-major/bin/../lib/gcc/arm-none-eabi/7.2.1/../../../../arm-none-eabi/lib/thumb/v7e-m/fpv5/hard\libnosys.a(_exit.o)
 .bss           0x20000ae0        0x0 d:/local disk e_1212020131/projects/toolchain_route/compiler/7 2017-q4-major/bin/../lib/gcc/arm-none-eabi/7.2.1/thumb/v7e-m/fpv5/hard/crtend.o
 .bss           0x20000ae0        0x0 d:/local disk e_1212020131/projects/toolchain_route/compiler/7 2017-q4-major/bin/../lib/gcc/arm-none-eabi/7.2.1/thumb/v7e-m/fpv5/hard/crtn.o
 *(.bss.*)
 *(COMMON)
 COMMON         0x20000ae0        0x0 ./obj/main.o
 COMMON         0x20000ae0       0x21 d:/local disk e_1212020131/projects/toolchain_route/compiler/7 2017-q4-major/bin/../lib/gcc/arm-none-eabi/7.2.1/../../../../arm-none-eabi/lib/thumb/v7e-m/fpv5/hard\libc.a(lib_a-lock.o)
                0x20000ae0                __lock___atexit_recursive_mutex
                0x20000ae4                __lock___arc4random_mutex
                0x20000ae8                __lock___env_recursive_mutex
                0x20000aec                __lock___sinit_recursive_mutex
                0x20000af0                __lock___malloc_recursive_mutex
                0x20000af4                __lock___at_quick_exit_mutex
                0x20000af8                __lock___dd_hash_mutex
                0x20000afc                __lock___tz_mutex
                0x20000b00                __lock___sfp_recursive_mutex
                0x20000b04                . = ALIGN (0x4)
 *fill*         0x20000b01        0x3 
                0x20000b04                __bss_end__ = .

.heap           0x20000b04        0xc
                0x20000b08                . = ALIGN (0x8)
 *fill*         0x20000b04        0x4 
                0x20000b08                __end__ = .
                [!provide]                PROVIDE (end, .)
                0x20000b10                . = (. + __HEAP_SIZE)
 *fill*         0x20000b08        0x8 
                0x20000b10                . = ALIGN (0x8)
                0x20000b10                __HeapLimit = .

.stack          0x2007fc00      0x400
                0x2007fc00                . = ALIGN (0x8)
                0x2007fc00                __StackLimit = .
                0x20080000                . = (. + __STACK_SIZE)
 *fill*         0x2007fc00      0x400 
                0x20080000                . = ALIGN (0x8)
                0x20080000                __StackTop = .
                0x20080000                PROVIDE (__stack, __StackTop)
                0x00000001                ASSERT ((__StackLimit >= __HeapLimit), region RAM overflowed with stack)

.sdram.bss      0xc0000000        0x0
                0xc0000000                . = ALIGN (0x4)
                0xc0000000                __bss_sdram_start__ = .
 *(.sdram.bss)
 *(.sdram.bss.*)
                0xc0000000                . = ALIGN (0x4)
                0xc0000000                __bss_sdram_end__ = .
                0x0800a33c                __etext_sdram = (__etext + (__data_end__ - __data_start__))

.sdram.data     0xc0000000        0x0 load address 0x0800a33c
                0xc0000000                . = ALIGN (0x4)
                0xc0000000                __sdram_data_start__ = .
 *(.sdram.data)
 *(.sdram.data.*)
                0xc0000000                . = ALIGN (0x4)
                0xc0000000                __sdram_data_end__ = .

.sdram.noinit   0xc0000000        0x0
                0xc0000000                . = ALIGN (0x4)
 *(.sdram.noinit)
 *(.sdram.noinit.*)
OUTPUT(./out/example_can_fd.elf elf32-littlearm)

.ARM.attributes
                0x00000000       0x2e
 .ARM.attributes
                0x00000000       0x20 d:/local disk e_1212020131/projects/toolchain_route/compiler/7 2017-q4-major/bin/../lib/gcc/arm-none-eabi/7.2.1/thumb/v7e-m/fpv5/hard/crti.o
 .ARM.attributes
                0x00000020       0x32 d:/local disk e_1212020131/projects/toolchain_route/compiler/7 2017-q4-major/bin/../lib/gcc/arm-none-eabi/7.2.1/thumb/v7e-m/fpv5/hard/crtbegin.o
 .ARM.attributes
                0x00000052       0x1e d:/local disk e_1212020131/projects/toolchain_route/compiler/7 2017-q4-major/bin/../lib/gcc/arm-none-eabi/7.2.1/../../../../arm-none-eabi/lib/thumb/v7e-m/fpv5/hard/crt0.o
 .ARM.attributes
                0x00000070       0x37 ./obj/startup_router_pro_fd.o
 .ARM.attributes
                0x000000a7       0x37 ./obj/system_router_pro_fd.o
 .ARM.attributes
                0x000000de       0x37 ./obj/main.o
 .ARM.attributes
                0x00000115       0x37 ./obj/can_user.o
 .ARM.attributes
                0x0000014c       0x37 ./obj/route_map.o
 .ARM.attributes
                0x00000183       0x37 ./obj/utils.o
 .ARM.attributes
                0x000001ba       0x37 ./obj/srr520_yg11_v05_in.o
 .ARM.attributes
                0x000001f1       0x37 ./obj/srr520_yg11_v05_out.o
 .ARM.attributes
                0x00000228       0x37 ./obj/hardware.o
 .ARM.attributes
                0x0000025f       0x37 ./obj/can.o
 .ARM.attributes
                0x00000296       0x32 d:/local disk e_1212020131/projects/toolchain_route/compiler/7 2017-q4-major/bin/../lib/gcc/arm-none-eabi/7.2.1/../../../../arm-none-eabi/lib/thumb/v7e-m/fpv5/hard\libc.a(lib_a-exit.o)
 .ARM.attributes
                0x000002c8       0x32 d:/local disk e_1212020131/projects/toolchain_route/compiler/7 2017-q4-major/bin/../lib/gcc/arm-none-eabi/7.2.1/../../../../arm-none-eabi/lib/thumb/v7e-m/fpv5/hard\libc.a(lib_a-impure.o)
 .ARM.attributes
                0x000002fa       0x32 d:/local disk e_1212020131/projects/toolchain_route/compiler/7 2017-q4-major/bin/../lib/gcc/arm-none-eabi/7.2.1/../../../../arm-none-eabi/lib/thumb/v7e-m/fpv5/hard\libc.a(lib_a-init.o)
 .ARM.attributes
                0x0000032c       0x1e d:/local disk e_1212020131/projects/toolchain_route/compiler/7 2017-q4-major/bin/../lib/gcc/arm-none-eabi/7.2.1/../../../../arm-none-eabi/lib/thumb/v7e-m/fpv5/hard\libc.a(lib_a-memcpy.o)
 .ARM.attributes
                0x0000034a       0x32 d:/local disk e_1212020131/projects/toolchain_route/compiler/7 2017-q4-major/bin/../lib/gcc/arm-none-eabi/7.2.1/../../../../arm-none-eabi/lib/thumb/v7e-m/fpv5/hard\libc.a(lib_a-memset.o)
 .ARM.attributes
                0x0000037c       0x32 d:/local disk e_1212020131/projects/toolchain_route/compiler/7 2017-q4-major/bin/../lib/gcc/arm-none-eabi/7.2.1/../../../../arm-none-eabi/lib/thumb/v7e-m/fpv5/hard\libc.a(lib_a-strncpy.o)
 .ARM.attributes
                0x000003ae       0x32 d:/local disk e_1212020131/projects/toolchain_route/compiler/7 2017-q4-major/bin/../lib/gcc/arm-none-eabi/7.2.1/../../../../arm-none-eabi/lib/thumb/v7e-m/fpv5/hard\libc.a(lib_a-__call_atexit.o)
 .ARM.attributes
                0x000003e0       0x32 d:/local disk e_1212020131/projects/toolchain_route/compiler/7 2017-q4-major/bin/../lib/gcc/arm-none-eabi/7.2.1/../../../../arm-none-eabi/lib/thumb/v7e-m/fpv5/hard\libc.a(lib_a-atexit.o)
 .ARM.attributes
                0x00000412       0x32 d:/local disk e_1212020131/projects/toolchain_route/compiler/7 2017-q4-major/bin/../lib/gcc/arm-none-eabi/7.2.1/../../../../arm-none-eabi/lib/thumb/v7e-m/fpv5/hard\libc.a(lib_a-fini.o)
 .ARM.attributes
                0x00000444       0x32 d:/local disk e_1212020131/projects/toolchain_route/compiler/7 2017-q4-major/bin/../lib/gcc/arm-none-eabi/7.2.1/../../../../arm-none-eabi/lib/thumb/v7e-m/fpv5/hard\libc.a(lib_a-lock.o)
 .ARM.attributes
                0x00000476       0x32 d:/local disk e_1212020131/projects/toolchain_route/compiler/7 2017-q4-major/bin/../lib/gcc/arm-none-eabi/7.2.1/../../../../arm-none-eabi/lib/thumb/v7e-m/fpv5/hard\libc.a(lib_a-__atexit.o)
 .ARM.attributes
                0x000004a8       0x32 d:/local disk e_1212020131/projects/toolchain_route/compiler/7 2017-q4-major/bin/../lib/gcc/arm-none-eabi/7.2.1/../../../../arm-none-eabi/lib/thumb/v7e-m/fpv5/hard\libnosys.a(_exit.o)
 .ARM.attributes
                0x000004da       0x32 d:/local disk e_1212020131/projects/toolchain_route/compiler/7 2017-q4-major/bin/../lib/gcc/arm-none-eabi/7.2.1/thumb/v7e-m/fpv5/hard/crtend.o
 .ARM.attributes
                0x0000050c       0x20 d:/local disk e_1212020131/projects/toolchain_route/compiler/7 2017-q4-major/bin/../lib/gcc/arm-none-eabi/7.2.1/thumb/v7e-m/fpv5/hard/crtn.o

.comment        0x00000000       0x7e
 .comment       0x00000000       0x7e ./obj/startup_router_pro_fd.o
                                 0x7f (size before relaxing)
 .comment       0x0000007e       0x7f ./obj/system_router_pro_fd.o
 .comment       0x0000007e       0x7f ./obj/main.o
 .comment       0x0000007e       0x7f ./obj/can_user.o
 .comment       0x0000007e       0x7f ./obj/route_map.o
 .comment       0x0000007e       0x7f ./obj/utils.o
 .comment       0x0000007e       0x7f ./obj/srr520_yg11_v05_in.o
 .comment       0x0000007e       0x7f ./obj/srr520_yg11_v05_out.o
 .comment       0x0000007e       0x7f ./obj/hardware.o
 .comment       0x0000007e       0x7f ./obj/can.o

.debug_info     0x00000000     0x95ea
 .debug_info    0x00000000      0x3c5 ./obj/startup_router_pro_fd.o
 .debug_info    0x000003c5      0x7bc ./obj/system_router_pro_fd.o
 .debug_info    0x00000b81      0xf0f ./obj/main.o
 .debug_info    0x00001a90     0x13fd ./obj/can_user.o
 .debug_info    0x00002e8d     0x14de ./obj/route_map.o
 .debug_info    0x0000436b      0x966 ./obj/utils.o
 .debug_info    0x00004cd1      0xbf0 ./obj/srr520_yg11_v05_in.o
 .debug_info    0x000058c1      0xd2e ./obj/srr520_yg11_v05_out.o
 .debug_info    0x000065ef     0x1731 ./obj/hardware.o
 .debug_info    0x00007d20     0x18ca ./obj/can.o

.debug_abbrev   0x00000000     0x174c
 .debug_abbrev  0x00000000      0x1ee ./obj/startup_router_pro_fd.o
 .debug_abbrev  0x000001ee      0x129 ./obj/system_router_pro_fd.o
 .debug_abbrev  0x00000317      0x22c ./obj/main.o
 .debug_abbrev  0x00000543      0x2ff ./obj/can_user.o
 .debug_abbrev  0x00000842      0x308 ./obj/route_map.o
 .debug_abbrev  0x00000b4a      0x15c ./obj/utils.o
 .debug_abbrev  0x00000ca6      0x19a ./obj/srr520_yg11_v05_in.o
 .debug_abbrev  0x00000e40      0x19a ./obj/srr520_yg11_v05_out.o
 .debug_abbrev  0x00000fda      0x3c1 ./obj/hardware.o
 .debug_abbrev  0x0000139b      0x3b1 ./obj/can.o

.debug_loc      0x00000000     0x1a96
 .debug_loc     0x00000000       0x7e ./obj/startup_router_pro_fd.o
 .debug_loc     0x0000007e      0x14c ./obj/system_router_pro_fd.o
 .debug_loc     0x000001ca       0x20 ./obj/main.o
 .debug_loc     0x000001ea      0x1e0 ./obj/can_user.o
 .debug_loc     0x000003ca      0x51c ./obj/route_map.o
 .debug_loc     0x000008e6       0x8f ./obj/srr520_yg11_v05_in.o
 .debug_loc     0x00000975      0x294 ./obj/srr520_yg11_v05_out.o
 .debug_loc     0x00000c09      0x641 ./obj/hardware.o
 .debug_loc     0x0000124a      0x84c ./obj/can.o

.debug_aranges  0x00000000      0x138
 .debug_aranges
                0x00000000       0x20 ./obj/startup_router_pro_fd.o
 .debug_aranges
                0x00000020       0x20 ./obj/system_router_pro_fd.o
 .debug_aranges
                0x00000040       0x20 ./obj/main.o
 .debug_aranges
                0x00000060       0x20 ./obj/can_user.o
 .debug_aranges
                0x00000080       0x20 ./obj/route_map.o
 .debug_aranges
                0x000000a0       0x18 ./obj/utils.o
 .debug_aranges
                0x000000b8       0x20 ./obj/srr520_yg11_v05_in.o
 .debug_aranges
                0x000000d8       0x20 ./obj/srr520_yg11_v05_out.o
 .debug_aranges
                0x000000f8       0x20 ./obj/hardware.o
 .debug_aranges
                0x00000118       0x20 ./obj/can.o

.debug_line     0x00000000     0x1ca1
 .debug_line    0x00000000      0x1a0 ./obj/startup_router_pro_fd.o
 .debug_line    0x000001a0      0x1a6 ./obj/system_router_pro_fd.o
 .debug_line    0x00000346      0x2e4 ./obj/main.o
 .debug_line    0x0000062a      0x2c0 ./obj/can_user.o
 .debug_line    0x000008ea      0x3b2 ./obj/route_map.o
 .debug_line    0x00000c9c      0x122 ./obj/utils.o
 .debug_line    0x00000dbe      0x245 ./obj/srr520_yg11_v05_in.o
 .debug_line    0x00001003      0x29f ./obj/srr520_yg11_v05_out.o
 .debug_line    0x000012a2      0x472 ./obj/hardware.o
 .debug_line    0x00001714      0x58d ./obj/can.o

.debug_str      0x00000000     0x171b
 .debug_str     0x00000000      0x2a5 ./obj/startup_router_pro_fd.o
                                0x2f9 (size before relaxing)
 .debug_str     0x000002a5      0x27f ./obj/system_router_pro_fd.o
                                0x47d (size before relaxing)
 .debug_str     0x00000524      0x57f ./obj/main.o
                                0x757 (size before relaxing)
 .debug_str     0x00000aa3      0x1ee ./obj/can_user.o
                                0x8d2 (size before relaxing)
 .debug_str     0x00000c91      0x664 ./obj/route_map.o
                                0xd2a (size before relaxing)
 .debug_str     0x000012f5        0xe ./obj/utils.o
                                0x562 (size before relaxing)
 .debug_str     0x00001303       0x2e ./obj/srr520_yg11_v05_in.o
                                0x996 (size before relaxing)
 .debug_str     0x00001331       0x1c ./obj/srr520_yg11_v05_out.o
                                0xad0 (size before relaxing)
 .debug_str     0x0000134d      0x2cb ./obj/hardware.o
                                0xace (size before relaxing)
 .debug_str     0x00001618      0x103 ./obj/can.o
                                0xa39 (size before relaxing)

.debug_frame    0x00000000      0x834
 .debug_frame   0x00000000       0x30 ./obj/startup_router_pro_fd.o
 .debug_frame   0x00000030       0x30 ./obj/system_router_pro_fd.o
 .debug_frame   0x00000060       0x2c ./obj/main.o
 .debug_frame   0x0000008c       0x80 ./obj/can_user.o
 .debug_frame   0x0000010c       0xcc ./obj/route_map.o
 .debug_frame   0x000001d8       0x30 ./obj/srr520_yg11_v05_in.o
 .debug_frame   0x00000208       0xb4 ./obj/srr520_yg11_v05_out.o
 .debug_frame   0x000002bc      0x11c ./obj/hardware.o
 .debug_frame   0x000003d8      0x1e8 ./obj/can.o
 .debug_frame   0x000005c0       0x28 d:/local disk e_1212020131/projects/toolchain_route/compiler/7 2017-q4-major/bin/../lib/gcc/arm-none-eabi/7.2.1/../../../../arm-none-eabi/lib/thumb/v7e-m/fpv5/hard\libc.a(lib_a-exit.o)
 .debug_frame   0x000005e8       0x2c d:/local disk e_1212020131/projects/toolchain_route/compiler/7 2017-q4-major/bin/../lib/gcc/arm-none-eabi/7.2.1/../../../../arm-none-eabi/lib/thumb/v7e-m/fpv5/hard\libc.a(lib_a-init.o)
 .debug_frame   0x00000614       0x38 d:/local disk e_1212020131/projects/toolchain_route/compiler/7 2017-q4-major/bin/../lib/gcc/arm-none-eabi/7.2.1/../../../../arm-none-eabi/lib/thumb/v7e-m/fpv5/hard\libc.a(lib_a-memset.o)
 .debug_frame   0x0000064c       0x34 d:/local disk e_1212020131/projects/toolchain_route/compiler/7 2017-q4-major/bin/../lib/gcc/arm-none-eabi/7.2.1/../../../../arm-none-eabi/lib/thumb/v7e-m/fpv5/hard\libc.a(lib_a-strncpy.o)
 .debug_frame   0x00000680       0x5c d:/local disk e_1212020131/projects/toolchain_route/compiler/7 2017-q4-major/bin/../lib/gcc/arm-none-eabi/7.2.1/../../../../arm-none-eabi/lib/thumb/v7e-m/fpv5/hard\libc.a(lib_a-__call_atexit.o)
 .debug_frame   0x000006dc       0x20 d:/local disk e_1212020131/projects/toolchain_route/compiler/7 2017-q4-major/bin/../lib/gcc/arm-none-eabi/7.2.1/../../../../arm-none-eabi/lib/thumb/v7e-m/fpv5/hard\libc.a(lib_a-atexit.o)
 .debug_frame   0x000006fc       0x34 d:/local disk e_1212020131/projects/toolchain_route/compiler/7 2017-q4-major/bin/../lib/gcc/arm-none-eabi/7.2.1/../../../../arm-none-eabi/lib/thumb/v7e-m/fpv5/hard\libc.a(lib_a-fini.o)
 .debug_frame   0x00000730       0xb0 d:/local disk e_1212020131/projects/toolchain_route/compiler/7 2017-q4-major/bin/../lib/gcc/arm-none-eabi/7.2.1/../../../../arm-none-eabi/lib/thumb/v7e-m/fpv5/hard\libc.a(lib_a-lock.o)
 .debug_frame   0x000007e0       0x34 d:/local disk e_1212020131/projects/toolchain_route/compiler/7 2017-q4-major/bin/../lib/gcc/arm-none-eabi/7.2.1/../../../../arm-none-eabi/lib/thumb/v7e-m/fpv5/hard\libc.a(lib_a-__atexit.o)
 .debug_frame   0x00000814       0x20 d:/local disk e_1212020131/projects/toolchain_route/compiler/7 2017-q4-major/bin/../lib/gcc/arm-none-eabi/7.2.1/../../../../arm-none-eabi/lib/thumb/v7e-m/fpv5/hard\libnosys.a(_exit.o)

.debug_ranges   0x00000000      0x148
 .debug_ranges  0x00000000       0x28 ./obj/main.o
 .debug_ranges  0x00000028       0x68 ./obj/route_map.o
 .debug_ranges  0x00000090       0x18 ./obj/hardware.o
 .debug_ranges  0x000000a8       0xa0 ./obj/can.o

Cross Reference Table

Symbol                                            File
ADC_IRQHandler                                    ./obj/startup_router_pro_fd.o
AHBPrescTable                                     ./obj/system_router_pro_fd.o
APBPrescTable                                     ./obj/system_router_pro_fd.o
BusFault_Handler                                  ./obj/startup_router_pro_fd.o
CAN1_RX0_IRQHandler                               ./obj/startup_router_pro_fd.o
CAN1_RX1_IRQHandler                               ./obj/startup_router_pro_fd.o
CAN1_SCE_IRQHandler                               ./obj/startup_router_pro_fd.o
CAN1_TX_IRQHandler                                ./obj/startup_router_pro_fd.o
CAN2_RX0_IRQHandler                               ./obj/startup_router_pro_fd.o
CAN2_RX1_IRQHandler                               ./obj/startup_router_pro_fd.o
CAN2_SCE_IRQHandler                               ./obj/startup_router_pro_fd.o
CAN2_TX_IRQHandler                                ./obj/startup_router_pro_fd.o
CAN3_RX0_IRQHandler                               ./obj/startup_router_pro_fd.o
CAN3_RX1_IRQHandler                               ./obj/startup_router_pro_fd.o
CAN3_SCE_IRQHandler                               ./obj/startup_router_pro_fd.o
CAN3_TX_IRQHandler                                ./obj/startup_router_pro_fd.o
CANFD_2_CAN_Routing                               ./obj/can_user.o
                                                  ./obj/main.o
CAN_2_CANFD_Routing                               ./obj/can_user.o
                                                  ./obj/main.o
CAN_FilterAdd                                     ./obj/can.o
                                                  ./obj/can_user.o
CAN_FilterRem                                     ./obj/can.o
CAN_FilterReset                                   ./obj/can.o
CAN_Initialize                                    ./obj/can.o
                                                  ./obj/can_user.o
CAN_Read                                          ./obj/can.o
                                                  ./obj/can_user.o
CAN_Startup                                       ./obj/can.o
                                                  ./obj/hardware.o
CAN_UnInitialize                                  ./obj/can.o
                                                  ./obj/can_user.o
CAN_UserInit                                      ./obj/can_user.o
                                                  ./obj/main.o
CAN_UserInvokeBootloader                          ./obj/can_user.o
CAN_UserRead                                      ./obj/can_user.o
                                                  ./obj/main.o
CAN_Write                                         ./obj/can.o
                                                  ./obj/route_map.o
                                                  ./obj/can_user.o
CEC_IRQHandler                                    ./obj/startup_router_pro_fd.o
DCMI_IRQHandler                                   ./obj/startup_router_pro_fd.o
DFSDM1_FLT0_IRQHandler                            ./obj/startup_router_pro_fd.o
DFSDM1_FLT1_IRQHandler                            ./obj/startup_router_pro_fd.o
DFSDM1_FLT2_IRQHandler                            ./obj/startup_router_pro_fd.o
DFSDM1_FLT3_IRQHandler                            ./obj/startup_router_pro_fd.o
DMA1_Stream0_IRQHandler                           ./obj/startup_router_pro_fd.o
DMA1_Stream1_IRQHandler                           ./obj/startup_router_pro_fd.o
DMA1_Stream2_IRQHandler                           ./obj/startup_router_pro_fd.o
DMA1_Stream3_IRQHandler                           ./obj/startup_router_pro_fd.o
DMA1_Stream4_IRQHandler                           ./obj/startup_router_pro_fd.o
DMA1_Stream5_IRQHandler                           ./obj/startup_router_pro_fd.o
DMA1_Stream6_IRQHandler                           ./obj/startup_router_pro_fd.o
DMA1_Stream7_IRQHandler                           ./obj/startup_router_pro_fd.o
DMA2D_IRQHandler                                  ./obj/startup_router_pro_fd.o
DMA2_Stream0_IRQHandler                           ./obj/startup_router_pro_fd.o
DMA2_Stream1_IRQHandler                           ./obj/startup_router_pro_fd.o
DMA2_Stream2_IRQHandler                           ./obj/startup_router_pro_fd.o
DMA2_Stream3_IRQHandler                           ./obj/startup_router_pro_fd.o
DMA2_Stream4_IRQHandler                           ./obj/startup_router_pro_fd.o
DMA2_Stream5_IRQHandler                           ./obj/startup_router_pro_fd.o
DMA2_Stream6_IRQHandler                           ./obj/startup_router_pro_fd.o
DMA2_Stream7_IRQHandler                           ./obj/startup_router_pro_fd.o
DebugMon_Handler                                  ./obj/startup_router_pro_fd.o
Default_Handler                                   ./obj/startup_router_pro_fd.o
EEPROM_Init                                       ./obj/hardware.o
ETH_IRQHandler                                    ./obj/startup_router_pro_fd.o
ETH_WKUP_IRQHandler                               ./obj/startup_router_pro_fd.o
EXTI0_IRQHandler                                  ./obj/startup_router_pro_fd.o
EXTI15_10_IRQHandler                              ./obj/startup_router_pro_fd.o
EXTI1_IRQHandler                                  ./obj/startup_router_pro_fd.o
EXTI2_IRQHandler                                  ./obj/startup_router_pro_fd.o
EXTI3_IRQHandler                                  ./obj/startup_router_pro_fd.o
EXTI4_IRQHandler                                  ./obj/startup_router_pro_fd.o
EXTI9_5_IRQHandler                                ./obj/startup_router_pro_fd.o
FLASH_IRQHandler                                  ./obj/startup_router_pro_fd.o
FMC_IRQHandler                                    ./obj/startup_router_pro_fd.o
FPU_IRQHandler                                    ./obj/startup_router_pro_fd.o
HW_EnterPowerDown                                 ./obj/hardware.o
HW_GetDIN                                         ./obj/hardware.o
HW_GetModuleID                                    ./obj/hardware.o
HW_Init                                           ./obj/hardware.o
                                                  ./obj/main.o
HW_JumpToBootloader                               ./obj/hardware.o
                                                  ./obj/can_user.o
HW_PassUsbToHost                                  ./obj/hardware.o
HW_PassUsbToMe                                    ./obj/hardware.o
HW_ResetModule                                    ./obj/hardware.o
HW_SetLED                                         ./obj/hardware.o
                                                  ./obj/main.o
HardFault_Handler                                 ./obj/startup_router_pro_fd.o
I2C1_ER_IRQHandler                                ./obj/startup_router_pro_fd.o
I2C1_EV_IRQHandler                                ./obj/startup_router_pro_fd.o
I2C2_ER_IRQHandler                                ./obj/startup_router_pro_fd.o
I2C2_EV_IRQHandler                                ./obj/startup_router_pro_fd.o
I2C3_ER_IRQHandler                                ./obj/startup_router_pro_fd.o
I2C3_EV_IRQHandler                                ./obj/startup_router_pro_fd.o
I2C4_ER_IRQHandler                                ./obj/startup_router_pro_fd.o
I2C4_EV_IRQHandler                                ./obj/startup_router_pro_fd.o
Ident                                             ./obj/main.o
IndexToOutputMsg                                  ./obj/route_map.o
LPTIM1_IRQHandler                                 ./obj/startup_router_pro_fd.o
MDIOS_IRQHandler                                  ./obj/startup_router_pro_fd.o
MemManage_Handler                                 ./obj/startup_router_pro_fd.o
NMI_Handler                                       ./obj/startup_router_pro_fd.o
OTG_FS_IRQHandler                                 ./obj/startup_router_pro_fd.o
OTG_FS_WKUP_IRQHandler                            ./obj/startup_router_pro_fd.o
OTG_HS_EP1_IN_IRQHandler                          ./obj/startup_router_pro_fd.o
OTG_HS_EP1_OUT_IRQHandler                         ./obj/startup_router_pro_fd.o
OTG_HS_IRQHandler                                 ./obj/startup_router_pro_fd.o
OTG_HS_WKUP_IRQHandler                            ./obj/startup_router_pro_fd.o
PVD_IRQHandler                                    ./obj/startup_router_pro_fd.o
PendSV_Handler                                    ./obj/startup_router_pro_fd.o
QUADSPI_IRQHandler                                ./obj/startup_router_pro_fd.o
RCC_IRQHandler                                    ./obj/startup_router_pro_fd.o
RNG_IRQHandler                                    ./obj/startup_router_pro_fd.o
RTC_Alarm_IRQHandler                              ./obj/startup_router_pro_fd.o
RTC_WKUP_IRQHandler                               ./obj/startup_router_pro_fd.o
Reset_Handler                                     ./obj/startup_router_pro_fd.o
SAI1_IRQHandler                                   ./obj/startup_router_pro_fd.o
SAI2_IRQHandler                                   ./obj/startup_router_pro_fd.o
SDMMC1_IRQHandler                                 ./obj/startup_router_pro_fd.o
SDMMC2_IRQHandler                                 ./obj/startup_router_pro_fd.o
SPDIF_RX_IRQHandler                               ./obj/startup_router_pro_fd.o
SPI1_IRQHandler                                   ./obj/startup_router_pro_fd.o
SPI2_IRQHandler                                   ./obj/startup_router_pro_fd.o
SPI3_IRQHandler                                   ./obj/startup_router_pro_fd.o
SPI4_IRQHandler                                   ./obj/startup_router_pro_fd.o
SPI5_IRQHandler                                   ./obj/startup_router_pro_fd.o
SPI6_IRQHandler                                   ./obj/startup_router_pro_fd.o
SVC_Handler                                       ./obj/startup_router_pro_fd.o
SysTick_Handler                                   ./obj/startup_router_pro_fd.o
SystemCoreClock                                   ./obj/system_router_pro_fd.o
SystemCoreClockUpdate                             ./obj/system_router_pro_fd.o
SystemInit                                        ./obj/system_router_pro_fd.o
                                                  ./obj/startup_router_pro_fd.o
TAMP_STAMP_IRQHandler                             ./obj/startup_router_pro_fd.o
TIM1_BRK_TIM9_IRQHandler                          ./obj/startup_router_pro_fd.o
TIM1_CC_IRQHandler                                ./obj/startup_router_pro_fd.o
TIM1_TRG_COM_TIM11_IRQHandler                     ./obj/startup_router_pro_fd.o
TIM1_UP_TIM10_IRQHandler                          ./obj/startup_router_pro_fd.o
TIM2_IRQHandler                                   ./obj/startup_router_pro_fd.o
TIM3_IRQHandler                                   ./obj/startup_router_pro_fd.o
TIM4_IRQHandler                                   ./obj/startup_router_pro_fd.o
TIM5_IRQHandler                                   ./obj/startup_router_pro_fd.o
TIM6_DAC_IRQHandler                               ./obj/startup_router_pro_fd.o
TIM7_IRQHandler                                   ./obj/startup_router_pro_fd.o
TIM8_BRK_TIM12_IRQHandler                         ./obj/startup_router_pro_fd.o
TIM8_CC_IRQHandler                                ./obj/startup_router_pro_fd.o
TIM8_TRG_COM_TIM14_IRQHandler                     ./obj/startup_router_pro_fd.o
TIM8_UP_TIM13_IRQHandler                          ./obj/startup_router_pro_fd.o
UART4_IRQHandler                                  ./obj/startup_router_pro_fd.o
UART5_IRQHandler                                  ./obj/startup_router_pro_fd.o
UART7_IRQHandler                                  ./obj/startup_router_pro_fd.o
UART8_IRQHandler                                  ./obj/startup_router_pro_fd.o
USART1_IRQHandler                                 ./obj/startup_router_pro_fd.o
USART2_IRQHandler                                 ./obj/startup_router_pro_fd.o
USART3_IRQHandler                                 ./obj/startup_router_pro_fd.o
USART6_IRQHandler                                 ./obj/startup_router_pro_fd.o
UsageFault_Handler                                ./obj/startup_router_pro_fd.o
WWDG_IRQHandler                                   ./obj/startup_router_pro_fd.o
__StackTop                                        ./obj/startup_router_pro_fd.o
__Vectors                                         ./obj/startup_router_pro_fd.o
                                                  ./obj/system_router_pro_fd.o
__WaitMicros                                      ./obj/can.o
__atexit_recursive_mutex                          d:/local disk e_1212020131/projects/toolchain_route/compiler/7 2017-q4-major/bin/../lib/gcc/arm-none-eabi/7.2.1/../../../../arm-none-eabi/lib/thumb/v7e-m/fpv5/hard\libc.a(lib_a-__call_atexit.o)
                                                  d:/local disk e_1212020131/projects/toolchain_route/compiler/7 2017-q4-major/bin/../lib/gcc/arm-none-eabi/7.2.1/../../../../arm-none-eabi/lib/thumb/v7e-m/fpv5/hard\libc.a(lib_a-__atexit.o)
__bss_end__                                       d:/local disk e_1212020131/projects/toolchain_route/compiler/7 2017-q4-major/bin/../lib/gcc/arm-none-eabi/7.2.1/../../../../arm-none-eabi/lib/thumb/v7e-m/fpv5/hard/crt0.o
__bss_start__                                     d:/local disk e_1212020131/projects/toolchain_route/compiler/7 2017-q4-major/bin/../lib/gcc/arm-none-eabi/7.2.1/../../../../arm-none-eabi/lib/thumb/v7e-m/fpv5/hard/crt0.o
__call_exitprocs                                  d:/local disk e_1212020131/projects/toolchain_route/compiler/7 2017-q4-major/bin/../lib/gcc/arm-none-eabi/7.2.1/../../../../arm-none-eabi/lib/thumb/v7e-m/fpv5/hard\libc.a(lib_a-__call_atexit.o)
                                                  d:/local disk e_1212020131/projects/toolchain_route/compiler/7 2017-q4-major/bin/../lib/gcc/arm-none-eabi/7.2.1/../../../../arm-none-eabi/lib/thumb/v7e-m/fpv5/hard\libc.a(lib_a-exit.o)
__copy_table_end__                                ./obj/startup_router_pro_fd.o
__copy_table_start__                              ./obj/startup_router_pro_fd.o
__deregister_frame_info                           d:/local disk e_1212020131/projects/toolchain_route/compiler/7 2017-q4-major/bin/../lib/gcc/arm-none-eabi/7.2.1/thumb/v7e-m/fpv5/hard/crtbegin.o
__dso_handle                                      d:/local disk e_1212020131/projects/toolchain_route/compiler/7 2017-q4-major/bin/../lib/gcc/arm-none-eabi/7.2.1/thumb/v7e-m/fpv5/hard/crtbegin.o
__fini_array_end                                  d:/local disk e_1212020131/projects/toolchain_route/compiler/7 2017-q4-major/bin/../lib/gcc/arm-none-eabi/7.2.1/../../../../arm-none-eabi/lib/thumb/v7e-m/fpv5/hard\libc.a(lib_a-fini.o)
__fini_array_start                                d:/local disk e_1212020131/projects/toolchain_route/compiler/7 2017-q4-major/bin/../lib/gcc/arm-none-eabi/7.2.1/../../../../arm-none-eabi/lib/thumb/v7e-m/fpv5/hard\libc.a(lib_a-fini.o)
__init_array_end                                  d:/local disk e_1212020131/projects/toolchain_route/compiler/7 2017-q4-major/bin/../lib/gcc/arm-none-eabi/7.2.1/../../../../arm-none-eabi/lib/thumb/v7e-m/fpv5/hard\libc.a(lib_a-init.o)
__init_array_start                                d:/local disk e_1212020131/projects/toolchain_route/compiler/7 2017-q4-major/bin/../lib/gcc/arm-none-eabi/7.2.1/../../../../arm-none-eabi/lib/thumb/v7e-m/fpv5/hard\libc.a(lib_a-init.o)
__libc_fini                                       d:/local disk e_1212020131/projects/toolchain_route/compiler/7 2017-q4-major/bin/../lib/gcc/arm-none-eabi/7.2.1/../../../../arm-none-eabi/lib/thumb/v7e-m/fpv5/hard\libc.a(lib_a-__call_atexit.o)
__libc_fini_array                                 d:/local disk e_1212020131/projects/toolchain_route/compiler/7 2017-q4-major/bin/../lib/gcc/arm-none-eabi/7.2.1/../../../../arm-none-eabi/lib/thumb/v7e-m/fpv5/hard\libc.a(lib_a-fini.o)
                                                  d:/local disk e_1212020131/projects/toolchain_route/compiler/7 2017-q4-major/bin/../lib/gcc/arm-none-eabi/7.2.1/../../../../arm-none-eabi/lib/thumb/v7e-m/fpv5/hard\libc.a(lib_a-__call_atexit.o)
                                                  d:/local disk e_1212020131/projects/toolchain_route/compiler/7 2017-q4-major/bin/../lib/gcc/arm-none-eabi/7.2.1/../../../../arm-none-eabi/lib/thumb/v7e-m/fpv5/hard/crt0.o
__libc_init_array                                 d:/local disk e_1212020131/projects/toolchain_route/compiler/7 2017-q4-major/bin/../lib/gcc/arm-none-eabi/7.2.1/../../../../arm-none-eabi/lib/thumb/v7e-m/fpv5/hard\libc.a(lib_a-init.o)
                                                  d:/local disk e_1212020131/projects/toolchain_route/compiler/7 2017-q4-major/bin/../lib/gcc/arm-none-eabi/7.2.1/../../../../arm-none-eabi/lib/thumb/v7e-m/fpv5/hard/crt0.o
__lock___arc4random_mutex                         d:/local disk e_1212020131/projects/toolchain_route/compiler/7 2017-q4-major/bin/../lib/gcc/arm-none-eabi/7.2.1/../../../../arm-none-eabi/lib/thumb/v7e-m/fpv5/hard\libc.a(lib_a-lock.o)
__lock___at_quick_exit_mutex                      d:/local disk e_1212020131/projects/toolchain_route/compiler/7 2017-q4-major/bin/../lib/gcc/arm-none-eabi/7.2.1/../../../../arm-none-eabi/lib/thumb/v7e-m/fpv5/hard\libc.a(lib_a-lock.o)
__lock___atexit_recursive_mutex                   d:/local disk e_1212020131/projects/toolchain_route/compiler/7 2017-q4-major/bin/../lib/gcc/arm-none-eabi/7.2.1/../../../../arm-none-eabi/lib/thumb/v7e-m/fpv5/hard\libc.a(lib_a-lock.o)
                                                  d:/local disk e_1212020131/projects/toolchain_route/compiler/7 2017-q4-major/bin/../lib/gcc/arm-none-eabi/7.2.1/../../../../arm-none-eabi/lib/thumb/v7e-m/fpv5/hard\libc.a(lib_a-__call_atexit.o)
__lock___dd_hash_mutex                            d:/local disk e_1212020131/projects/toolchain_route/compiler/7 2017-q4-major/bin/../lib/gcc/arm-none-eabi/7.2.1/../../../../arm-none-eabi/lib/thumb/v7e-m/fpv5/hard\libc.a(lib_a-lock.o)
__lock___env_recursive_mutex                      d:/local disk e_1212020131/projects/toolchain_route/compiler/7 2017-q4-major/bin/../lib/gcc/arm-none-eabi/7.2.1/../../../../arm-none-eabi/lib/thumb/v7e-m/fpv5/hard\libc.a(lib_a-lock.o)
__lock___malloc_recursive_mutex                   d:/local disk e_1212020131/projects/toolchain_route/compiler/7 2017-q4-major/bin/../lib/gcc/arm-none-eabi/7.2.1/../../../../arm-none-eabi/lib/thumb/v7e-m/fpv5/hard\libc.a(lib_a-lock.o)
__lock___sfp_recursive_mutex                      d:/local disk e_1212020131/projects/toolchain_route/compiler/7 2017-q4-major/bin/../lib/gcc/arm-none-eabi/7.2.1/../../../../arm-none-eabi/lib/thumb/v7e-m/fpv5/hard\libc.a(lib_a-lock.o)
__lock___sinit_recursive_mutex                    d:/local disk e_1212020131/projects/toolchain_route/compiler/7 2017-q4-major/bin/../lib/gcc/arm-none-eabi/7.2.1/../../../../arm-none-eabi/lib/thumb/v7e-m/fpv5/hard\libc.a(lib_a-lock.o)
__lock___tz_mutex                                 d:/local disk e_1212020131/projects/toolchain_route/compiler/7 2017-q4-major/bin/../lib/gcc/arm-none-eabi/7.2.1/../../../../arm-none-eabi/lib/thumb/v7e-m/fpv5/hard\libc.a(lib_a-lock.o)
__preinit_array_end                               d:/local disk e_1212020131/projects/toolchain_route/compiler/7 2017-q4-major/bin/../lib/gcc/arm-none-eabi/7.2.1/../../../../arm-none-eabi/lib/thumb/v7e-m/fpv5/hard\libc.a(lib_a-init.o)
__preinit_array_start                             d:/local disk e_1212020131/projects/toolchain_route/compiler/7 2017-q4-major/bin/../lib/gcc/arm-none-eabi/7.2.1/../../../../arm-none-eabi/lib/thumb/v7e-m/fpv5/hard\libc.a(lib_a-init.o)
__register_exitproc                               d:/local disk e_1212020131/projects/toolchain_route/compiler/7 2017-q4-major/bin/../lib/gcc/arm-none-eabi/7.2.1/../../../../arm-none-eabi/lib/thumb/v7e-m/fpv5/hard\libc.a(lib_a-__atexit.o)
                                                  d:/local disk e_1212020131/projects/toolchain_route/compiler/7 2017-q4-major/bin/../lib/gcc/arm-none-eabi/7.2.1/../../../../arm-none-eabi/lib/thumb/v7e-m/fpv5/hard\libc.a(lib_a-atexit.o)
__register_frame_info                             d:/local disk e_1212020131/projects/toolchain_route/compiler/7 2017-q4-major/bin/../lib/gcc/arm-none-eabi/7.2.1/thumb/v7e-m/fpv5/hard/crtbegin.o
__retarget_lock_acquire                           d:/local disk e_1212020131/projects/toolchain_route/compiler/7 2017-q4-major/bin/../lib/gcc/arm-none-eabi/7.2.1/../../../../arm-none-eabi/lib/thumb/v7e-m/fpv5/hard\libc.a(lib_a-lock.o)
__retarget_lock_acquire_recursive                 d:/local disk e_1212020131/projects/toolchain_route/compiler/7 2017-q4-major/bin/../lib/gcc/arm-none-eabi/7.2.1/../../../../arm-none-eabi/lib/thumb/v7e-m/fpv5/hard\libc.a(lib_a-lock.o)
                                                  d:/local disk e_1212020131/projects/toolchain_route/compiler/7 2017-q4-major/bin/../lib/gcc/arm-none-eabi/7.2.1/../../../../arm-none-eabi/lib/thumb/v7e-m/fpv5/hard\libc.a(lib_a-__atexit.o)
                                                  d:/local disk e_1212020131/projects/toolchain_route/compiler/7 2017-q4-major/bin/../lib/gcc/arm-none-eabi/7.2.1/../../../../arm-none-eabi/lib/thumb/v7e-m/fpv5/hard\libc.a(lib_a-__call_atexit.o)
__retarget_lock_close                             d:/local disk e_1212020131/projects/toolchain_route/compiler/7 2017-q4-major/bin/../lib/gcc/arm-none-eabi/7.2.1/../../../../arm-none-eabi/lib/thumb/v7e-m/fpv5/hard\libc.a(lib_a-lock.o)
__retarget_lock_close_recursive                   d:/local disk e_1212020131/projects/toolchain_route/compiler/7 2017-q4-major/bin/../lib/gcc/arm-none-eabi/7.2.1/../../../../arm-none-eabi/lib/thumb/v7e-m/fpv5/hard\libc.a(lib_a-lock.o)
__retarget_lock_init                              d:/local disk e_1212020131/projects/toolchain_route/compiler/7 2017-q4-major/bin/../lib/gcc/arm-none-eabi/7.2.1/../../../../arm-none-eabi/lib/thumb/v7e-m/fpv5/hard\libc.a(lib_a-lock.o)
__retarget_lock_init_recursive                    d:/local disk e_1212020131/projects/toolchain_route/compiler/7 2017-q4-major/bin/../lib/gcc/arm-none-eabi/7.2.1/../../../../arm-none-eabi/lib/thumb/v7e-m/fpv5/hard\libc.a(lib_a-lock.o)
__retarget_lock_release                           d:/local disk e_1212020131/projects/toolchain_route/compiler/7 2017-q4-major/bin/../lib/gcc/arm-none-eabi/7.2.1/../../../../arm-none-eabi/lib/thumb/v7e-m/fpv5/hard\libc.a(lib_a-lock.o)
__retarget_lock_release_recursive                 d:/local disk e_1212020131/projects/toolchain_route/compiler/7 2017-q4-major/bin/../lib/gcc/arm-none-eabi/7.2.1/../../../../arm-none-eabi/lib/thumb/v7e-m/fpv5/hard\libc.a(lib_a-lock.o)
                                                  d:/local disk e_1212020131/projects/toolchain_route/compiler/7 2017-q4-major/bin/../lib/gcc/arm-none-eabi/7.2.1/../../../../arm-none-eabi/lib/thumb/v7e-m/fpv5/hard\libc.a(lib_a-__atexit.o)
                                                  d:/local disk e_1212020131/projects/toolchain_route/compiler/7 2017-q4-major/bin/../lib/gcc/arm-none-eabi/7.2.1/../../../../arm-none-eabi/lib/thumb/v7e-m/fpv5/hard\libc.a(lib_a-__call_atexit.o)
__retarget_lock_try_acquire                       d:/local disk e_1212020131/projects/toolchain_route/compiler/7 2017-q4-major/bin/../lib/gcc/arm-none-eabi/7.2.1/../../../../arm-none-eabi/lib/thumb/v7e-m/fpv5/hard\libc.a(lib_a-lock.o)
__retarget_lock_try_acquire_recursive             d:/local disk e_1212020131/projects/toolchain_route/compiler/7 2017-q4-major/bin/../lib/gcc/arm-none-eabi/7.2.1/../../../../arm-none-eabi/lib/thumb/v7e-m/fpv5/hard\libc.a(lib_a-lock.o)
__stack                                           d:/local disk e_1212020131/projects/toolchain_route/compiler/7 2017-q4-major/bin/../lib/gcc/arm-none-eabi/7.2.1/../../../../arm-none-eabi/lib/thumb/v7e-m/fpv5/hard/crt0.o
__zero_table_end__                                ./obj/startup_router_pro_fd.o
__zero_table_start__                              ./obj/startup_router_pro_fd.o
_exit                                             d:/local disk e_1212020131/projects/toolchain_route/compiler/7 2017-q4-major/bin/../lib/gcc/arm-none-eabi/7.2.1/../../../../arm-none-eabi/lib/thumb/v7e-m/fpv5/hard\libnosys.a(_exit.o)
                                                  d:/local disk e_1212020131/projects/toolchain_route/compiler/7 2017-q4-major/bin/../lib/gcc/arm-none-eabi/7.2.1/../../../../arm-none-eabi/lib/thumb/v7e-m/fpv5/hard\libc.a(lib_a-exit.o)
_fini                                             d:/local disk e_1212020131/projects/toolchain_route/compiler/7 2017-q4-major/bin/../lib/gcc/arm-none-eabi/7.2.1/thumb/v7e-m/fpv5/hard/crti.o
                                                  d:/local disk e_1212020131/projects/toolchain_route/compiler/7 2017-q4-major/bin/../lib/gcc/arm-none-eabi/7.2.1/../../../../arm-none-eabi/lib/thumb/v7e-m/fpv5/hard\libc.a(lib_a-fini.o)
_global_impure_ptr                                d:/local disk e_1212020131/projects/toolchain_route/compiler/7 2017-q4-major/bin/../lib/gcc/arm-none-eabi/7.2.1/../../../../arm-none-eabi/lib/thumb/v7e-m/fpv5/hard\libc.a(lib_a-impure.o)
                                                  d:/local disk e_1212020131/projects/toolchain_route/compiler/7 2017-q4-major/bin/../lib/gcc/arm-none-eabi/7.2.1/../../../../arm-none-eabi/lib/thumb/v7e-m/fpv5/hard\libc.a(lib_a-__atexit.o)
                                                  d:/local disk e_1212020131/projects/toolchain_route/compiler/7 2017-q4-major/bin/../lib/gcc/arm-none-eabi/7.2.1/../../../../arm-none-eabi/lib/thumb/v7e-m/fpv5/hard\libc.a(lib_a-__call_atexit.o)
                                                  d:/local disk e_1212020131/projects/toolchain_route/compiler/7 2017-q4-major/bin/../lib/gcc/arm-none-eabi/7.2.1/../../../../arm-none-eabi/lib/thumb/v7e-m/fpv5/hard\libc.a(lib_a-exit.o)
_impure_ptr                                       d:/local disk e_1212020131/projects/toolchain_route/compiler/7 2017-q4-major/bin/../lib/gcc/arm-none-eabi/7.2.1/../../../../arm-none-eabi/lib/thumb/v7e-m/fpv5/hard\libc.a(lib_a-impure.o)
_init                                             d:/local disk e_1212020131/projects/toolchain_route/compiler/7 2017-q4-major/bin/../lib/gcc/arm-none-eabi/7.2.1/thumb/v7e-m/fpv5/hard/crti.o
                                                  d:/local disk e_1212020131/projects/toolchain_route/compiler/7 2017-q4-major/bin/../lib/gcc/arm-none-eabi/7.2.1/../../../../arm-none-eabi/lib/thumb/v7e-m/fpv5/hard\libc.a(lib_a-init.o)
_mainCRTStartup                                   d:/local disk e_1212020131/projects/toolchain_route/compiler/7 2017-q4-major/bin/../lib/gcc/arm-none-eabi/7.2.1/../../../../arm-none-eabi/lib/thumb/v7e-m/fpv5/hard/crt0.o
_start                                            d:/local disk e_1212020131/projects/toolchain_route/compiler/7 2017-q4-major/bin/../lib/gcc/arm-none-eabi/7.2.1/../../../../arm-none-eabi/lib/thumb/v7e-m/fpv5/hard/crt0.o
                                                  ./obj/startup_router_pro_fd.o
atexit                                            d:/local disk e_1212020131/projects/toolchain_route/compiler/7 2017-q4-major/bin/../lib/gcc/arm-none-eabi/7.2.1/../../../../arm-none-eabi/lib/thumb/v7e-m/fpv5/hard\libc.a(lib_a-atexit.o)
                                                  d:/local disk e_1212020131/projects/toolchain_route/compiler/7 2017-q4-major/bin/../lib/gcc/arm-none-eabi/7.2.1/../../../../arm-none-eabi/lib/thumb/v7e-m/fpv5/hard\libc.a(lib_a-__call_atexit.o)
                                                  d:/local disk e_1212020131/projects/toolchain_route/compiler/7 2017-q4-major/bin/../lib/gcc/arm-none-eabi/7.2.1/../../../../arm-none-eabi/lib/thumb/v7e-m/fpv5/hard/crt0.o
exit                                              d:/local disk e_1212020131/projects/toolchain_route/compiler/7 2017-q4-major/bin/../lib/gcc/arm-none-eabi/7.2.1/../../../../arm-none-eabi/lib/thumb/v7e-m/fpv5/hard\libc.a(lib_a-exit.o)
                                                  d:/local disk e_1212020131/projects/toolchain_route/compiler/7 2017-q4-major/bin/../lib/gcc/arm-none-eabi/7.2.1/../../../../arm-none-eabi/lib/thumb/v7e-m/fpv5/hard/crt0.o
free                                              d:/local disk e_1212020131/projects/toolchain_route/compiler/7 2017-q4-major/bin/../lib/gcc/arm-none-eabi/7.2.1/../../../../arm-none-eabi/lib/thumb/v7e-m/fpv5/hard\libc.a(lib_a-__call_atexit.o)
hardware_init_hook                                d:/local disk e_1212020131/projects/toolchain_route/compiler/7 2017-q4-major/bin/../lib/gcc/arm-none-eabi/7.2.1/../../../../arm-none-eabi/lib/thumb/v7e-m/fpv5/hard/crt0.o
m_data_length_map                                 ./obj/route_map.o
main                                              ./obj/main.o
                                                  d:/local disk e_1212020131/projects/toolchain_route/compiler/7 2017-q4-major/bin/../lib/gcc/arm-none-eabi/7.2.1/../../../../arm-none-eabi/lib/thumb/v7e-m/fpv5/hard/crt0.o
malloc                                            d:/local disk e_1212020131/projects/toolchain_route/compiler/7 2017-q4-major/bin/../lib/gcc/arm-none-eabi/7.2.1/../../../../arm-none-eabi/lib/thumb/v7e-m/fpv5/hard\libc.a(lib_a-__atexit.o)
mapDataFromInToOutOne2One                         ./obj/route_map.o
map_table_one2one_CAN_2_CAN                       ./obj/route_map.o
                                                  ./obj/can_user.o
                                                  ./obj/main.o
memcpy                                            d:/local disk e_1212020131/projects/toolchain_route/compiler/7 2017-q4-major/bin/../lib/gcc/arm-none-eabi/7.2.1/../../../../arm-none-eabi/lib/thumb/v7e-m/fpv5/hard\libc.a(lib_a-memcpy.o)
                                                  ./obj/hardware.o
memset                                            d:/local disk e_1212020131/projects/toolchain_route/compiler/7 2017-q4-major/bin/../lib/gcc/arm-none-eabi/7.2.1/../../../../arm-none-eabi/lib/thumb/v7e-m/fpv5/hard\libc.a(lib_a-memset.o)
                                                  ./obj/hardware.o
                                                  ./obj/route_map.o
                                                  d:/local disk e_1212020131/projects/toolchain_route/compiler/7 2017-q4-major/bin/../lib/gcc/arm-none-eabi/7.2.1/../../../../arm-none-eabi/lib/thumb/v7e-m/fpv5/hard/crt0.o
set_message                                       ./obj/route_map.o
software_init_hook                                d:/local disk e_1212020131/projects/toolchain_route/compiler/7 2017-q4-major/bin/../lib/gcc/arm-none-eabi/7.2.1/../../../../arm-none-eabi/lib/thumb/v7e-m/fpv5/hard/crt0.o
srr520_yg11_v05_in_srr_obj_suffix_0_suffix_1_unpack ./obj/srr520_yg11_v05_in.o
                                                  ./obj/route_map.o
srr520_yg11_v05_out_srr_obj_suffix_0_suffix_1_0_pack ./obj/srr520_yg11_v05_out.o
                                                  ./obj/route_map.o
srr520_yg11_v05_out_srr_obj_suffix_0_suffix_1_1_pack ./obj/srr520_yg11_v05_out.o
                                                  ./obj/route_map.o
srr520_yg11_v05_out_srr_obj_suffix_0_suffix_1_2_pack ./obj/srr520_yg11_v05_out.o
                                                  ./obj/route_map.o
srr520_yg11_v05_out_srr_obj_suffix_0_suffix_1_3_pack ./obj/srr520_yg11_v05_out.o
                                                  ./obj/route_map.o
srr_can_ids                                       ./obj/route_map.o
srr_canfd2can_route_by_signals                    ./obj/route_map.o
                                                  ./obj/can_user.o
strncpy                                           d:/local disk e_1212020131/projects/toolchain_route/compiler/7 2017-q4-major/bin/../lib/gcc/arm-none-eabi/7.2.1/../../../../arm-none-eabi/lib/thumb/v7e-m/fpv5/hard\libc.a(lib_a-strncpy.o)
                                                  ./obj/hardware.o
